Component: ARM Compiler 5.06 update 6 (build 750) Tool: armlink [4d35ed]

==============================================================================

Section Cross References

    boot_vectors.o(RESET) refers to boot_vectors.o(STACK) for __initial_sp
    boot_vectors.o(RESET) refers to boot_vectors.o(.text) for Reset_Handler
    boot_vectors.o(RESET) refers to rwble.o(.text) for BLE_WAKEUP_LP_Handler
    boot_vectors.o(RESET) refers to pwm.o(.text) for SWTIM_Handler
    boot_vectors.o(RESET) refers to wkupct_quadec.o(.text) for WKUP_QUADEC_Handler
    boot_vectors.o(RESET) refers to uart2.o(.text) for UART2_Handler
    boot_vectors.o(RESET) refers to gpio.o(.text) for GPIO0_Handler
    boot_vectors.o(.text) refers to system_armcm0.o(.text) for SystemInit
    boot_vectors.o(.text) refers to entry.o(.ARM.Collect$$$$00000000) for __main
    boot_vectors.o(.text) refers to nmi_handler.o(.text) for NMI_HandlerC
    boot_vectors.o(.text) refers to hardfault_handler.o(.text) for HardFault_HandlerC
    boot_vectors.o(.text) refers to arch_patch.o(.text) for SVC_Handler_c
    nvds.o(.text) refers to nvds.o(retention_mem_area0) for retention_mem_area0
    arch_main.o(.text) refers to lis2ds12_acc_driver.o(.text) for LIS2DS12_ACC_W_LIR
    arch_main.o(.text) refers to arch_system.o(.text) for system_init
    arch_main.o(.text) refers to i2c_eeprom.o(.text) for i2c_eeprom_init
    arch_main.o(.text) refers to rwip.o(.text) for rwip_sleep
    arch_main.o(.text) refers to fk_oled.o(.text) for oled_display
    arch_main.o(.text) refers to uart2.o(.text) for uart2_write
    arch_main.o(.text) refers to my_timer.o(.text) for timer_process
    arch_main.o(.text) refers to arch_main.o(.bss) for .bss
    arch_main.o(.text) refers to fk_oled.o(.data) for Steps
    arch_main.o(.text) refers to jump_table.o(jump_table_mem_area) for jump_table_base
    arch_main.o(.text) refers to rwble.o(retention_mem_area0) for fine_hit
    arch_main.o(.text) refers to my_timer.o(.bss) for StepFlag
    arch_main.o(.text) refers to arch_main.o(.data) for .data
    arch_main.o(.constdata) refers to user_profile.o(.text) for user_app_init
    jump_table.o(jump_table_mem_area) refers to arch_main.o(.text) for main_func
    jump_table.o(jump_table_mem_area) refers to rf_580.o(.text) for rf_init_func
    jump_table.o(jump_table_mem_area) refers to prf_utils.o(.text) for prf_init_func
    jump_table.o(jump_table_mem_area) refers to arch_system.o(.text) for uart_flow_off_func
    jump_table.o(jump_table_mem_area) refers to rwble.o(.text) for lld_sleep_compensate_func_patched
    jump_table.o(jump_table_mem_area) refers to jump_table.o(heap_mem_area_not_ret) for rwip_heap_non_ret
    jump_table.o(jump_table_mem_area) refers to jump_table.o(heap_env_area) for rwip_heap_env_ret
    jump_table.o(jump_table_mem_area) refers to jump_table.o(heap_db_area) for rwip_heap_db_ret
    jump_table.o(jump_table_mem_area) refers to jump_table.o(heap_msg_area) for rwip_heap_msg_ret
    jump_table.o(jump_table_mem_area) refers to ke_task.obj(.text) for ke_task_init_func
    jump_table.o(jump_table_mem_area) refers to nvds.o(.text) for custom_nvds_get_func
    jump_table.o(jump_table_mem_area) refers to jump_table.o(.constdata) for LUT_CFG
    arch_sleep.o(.text) refers to arch_sleep.o(retention_mem_area0) for retention_mem_area0
    arch_sleep.o(.text) refers to arch_sleep.o(.text) for arch_set_deep_sleep
    arch_sleep.o(.text) refers to arch_sleep.o(retention_mem_area0) for retention_mem_area0
    arch_sleep.o(.text) refers to arch_sleep.o(.text) for arch_get_sleep_mode
    arch_sleep.o(.text) refers to arch_sleep.o(.text) for arch_disable_sleep
    arch_sleep.o(.text) refers to arch_sleep.o(retention_mem_area0) for retention_mem_area0
    arch_sleep.o(.text) refers to arch_sleep.o(retention_mem_area0) for retention_mem_area0
    arch_sleep.o(.text) refers to arch_sleep.o(retention_mem_area0) for retention_mem_area0
    arch_sleep.o(.text) refers to rwble.o(retention_mem_area0) for arch_rwble_last_event
    arch_system.o(.text) refers to trng.o(.text) for trng_acquire
    arch_system.o(.text) refers to gpio.o(.text) for GPIO_init
    arch_system.o(.text) refers to nvds.o(.text) for nvds_read_bdaddr_from_otp
    arch_system.o(.text) refers to user_periph_setup.o(.text) for periph_init
    arch_system.o(.text) refers to rf_580.o(.text) for iq_trim_from_otp
    arch_system.o(.text) refers to arch_patch.o(.text) for patch_llm_task
    arch_system.o(.text) refers to llc.obj(.text) for patch_llc_task
    arch_system.o(.text) refers to atts_task.obj(.text) for patch_atts_task
    arch_system.o(.text) refers to gapc_task.obj(.text) for patch_gapc_task
    arch_system.o(.text) refers to arch_sleep.o(.text) for arch_disable_sleep
    arch_system.o(.text) refers to app.o(.text) for app_init
    arch_system.o(.text) refers to user_profile.o(.text) for user_app_init
    arch_system.o(.text) refers to arch_system.o(retention_mem_area0) for retention_mem_area0
    arch_system.o(.text) refers to arch_main.o(retention_mem_area0) for sys_startup_flag
    arch_system.o(.text) refers to arch_system.o(.data) for .data
    arch_system.o(.constdata) refers to user_profile.o(.text) for user_app_init
    arch_patch.o(.text) refers to arch_patch.o(.constdata) for .constdata
    arch_patch.o(.text) refers to jump_table.o(jump_table_mem_area) for jump_table_base
    arch_patch.o(.constdata) refers to atts_util.obj(.text) for atts_read_resp_patch
    arch_patch.o(.constdata) refers to arch_patch.o(.text) for llm_rom_default_handler
    arch_patch.o(.constdata) refers to arch_patch.o(.constdata) for my_llm_default_state
    arch_patch.o(.constdata) refers to arch_patch.o(.constdata) for my_llm_default_handler
    arch_patch.o(.constdata) refers to arch_patch.o(.text) for cmp_abs_time
    arch_patch.o(.constdata) refers to smpc.obj(.text) for smpc_send_pairing_req_ind
    arch_patch.o(.constdata) refers to smpc_task.obj(.text) for smpc_pairing_cfm_handler
    arch_patch.o(.constdata) refers to llc_con_update_ind.obj(.text) for patched_llc_con_update_ind
    arch_patch.o(.constdata) refers to gapm_util.obj(.text) for patched_gapm_adv_op_sanity
    atts_task.obj(.text) refers to arch_patch.o(.constdata) for atts_read_resp_impl
    atts_task.obj(.text) refers to atts_task.obj(.constdata) for .constdata
    atts_task.obj(.constdata) refers to atts_task.obj(.text) for my_l2cc_pdu_recv_ind_handler
    atts_task.obj(.constdata) refers to atts_task.obj(.constdata) for my_atts_default_state
    atts_task.obj(.constdata) refers to atts_task.obj(.constdata) for my_atts_state_handler
    atts_task.obj(.constdata) refers to atts_task.obj(.constdata) for my_atts_default_handler
    atts_util.obj(.text) refers to atts_util.obj(retention_mem_area0) for retention_mem_area0
    atts_util.obj(.text) refers to atts_util.obj(retention_mem_area0) for retention_mem_area0
    atts_util.obj(.text) refers to atts_util.obj(retention_mem_area0) for retention_mem_area0
    smpc_task.obj(.text) refers to smpc.obj(.text) for smpc_send_pairing_req_ind
    llc.obj(.text) refers to ch_map.obj(.text) for my_llc_con_update_req_ind
    llc.obj(.text) refers to jump_table.o(jump_table_mem_area) for jump_table_base
    llc.obj(.text) refers to llc.obj(retention_mem_area0) for retention_mem_area0
    llc.obj(.text) refers to llc.obj(.constdata) for .constdata
    llc.obj(.constdata) refers to llc.obj(.text) for llc_rom_default_handler
    llc.obj(.constdata) refers to llc.obj(.text) for my_lld_stop_ind_handler
    llc.obj(.constdata) refers to llc.obj(.constdata) for my_llc_stopping
    llc.obj(.constdata) refers to llc.obj(.constdata) for my_llc_default_state
    llc.obj(.constdata) refers to llc.obj(.constdata) for my_llc_state_handler
    llc.obj(.constdata) refers to llc.obj(.constdata) for my_llc_default_handler
    ke_mem.obj(.text) refers to ke_mem.obj(.data) for .data
    ke_mem.obj(.text) refers to arch_patch.o(retention_mem_area0) for mem_log
    gapc_task.obj(.text) refers to jump_table.o(jump_table_mem_area) for jump_table_base
    gapc_task.obj(.text) refers to gapc_task.obj(.constdata) for .constdata
    gapc_task.obj(.constdata) refers to gapc_task.obj(.text) for gapc_rom_default_handler
    gapc_task.obj(.constdata) refers to gapc_task.obj(.constdata) for patched_gapc_default_state
    gapc_task.obj(.constdata) refers to gapc_task.obj(.constdata) for patched_gapc_default_handler
    gpio.o(.text) refers to gpio.o(.bss) for .bss
    gpio.o(.text) refers to gpio.o(.text) for gpioshift16
    wkupct_quadec.o(.text) refers to wkupct_quadec.o(retention_mem_area0) for retention_mem_area0
    wkupct_quadec.o(.text) refers to syscntl.o(.text) for syscntl_use_highest_amba_clocks
    wkupct_quadec.o(.text) refers to wkupct_quadec.o(retention_mem_area0) for retention_mem_area0
    wkupct_quadec.o(.text) refers to wkupct_quadec.o(retention_mem_area0) for retention_mem_area0
    wkupct_quadec.o(.text) refers to wkupct_quadec.o(.text) for wkupct_quad_disable_IRQ
    wkupct_quadec.o(.text) refers to wkupct_quadec.o(retention_mem_area0) for retention_mem_area0
    wkupct_quadec.o(.text) refers to wkupct_quadec.o(retention_mem_area0) for retention_mem_area0
    wkupct_quadec.o(.text) refers to wkupct_quadec.o(retention_mem_area0) for retention_mem_area0
    wkupct_quadec.o(.text) refers to wkupct_quadec.o(.text) for wkupct_quad_disable_IRQ
    wkupct_quadec.o(.text) refers to wkupct_quadec.o(retention_mem_area0) for retention_mem_area0
    wkupct_quadec.o(.text) refers to wkupct_quadec.o(.text) for quad_decoder_disable_irq
    wkupct_quadec.o(.text) refers to wkupct_quadec.o(retention_mem_area0) for retention_mem_area0
    battery.o(.text) refers to adc.o(.text) for adc_calibrate
    trng.o(.text) refers to rf_580.o(.text) for rf_regs
    spi_flash.o(.text) refers to spi.o(.text) for spi_set_bitmode
    spi_flash.o(.text) refers to spi_flash.o(.bss) for .bss
    spi_flash.o(.text) refers to spi_flash.o(.text) for spi_flash_wait_till_ready
    spi_flash.o(.text) refers to spi.o(.text) for spi_set_bitmode
    spi_flash.o(.text) refers to spi_flash.o(.text) for spi_read_flash_jedec_id
    spi_flash.o(.text) refers to spi_flash.o(.bss) for .bss
    spi_flash.o(.text) refers to spi_flash.o(.constdata) for .constdata
    spi_flash.o(.text) refers to spi_flash.o(.text) for spi_flash_wait_till_ready
    spi_flash.o(.text) refers to spi.o(.text) for spi_set_bitmode
    spi_flash.o(.text) refers to spi_flash.o(.text) for spi_flash_wait_till_ready
    spi_flash.o(.text) refers to spi.o(.text) for spi_set_bitmode
    spi_flash.o(.text) refers to spi_flash.o(.text) for spi_flash_wait_till_ready
    spi_flash.o(.text) refers to spi.o(.text) for spi_set_bitmode
    spi_flash.o(.text) refers to spi_flash.o(.text) for spi_flash_set_write_enable
    spi_flash.o(.text) refers to spi.o(.text) for spi_set_bitmode
    spi_flash.o(.text) refers to spi_flash.o(.text) for spi_flash_wait_till_ready
    spi_flash.o(.text) refers to spi.o(.text) for spi_set_bitmode
    spi_flash.o(.text) refers to spi_flash.o(.text) for spi_flash_wait_till_ready
    spi_flash.o(.text) refers to spi.o(.text) for spi_set_bitmode
    spi_flash.o(.text) refers to spi.o(.text) for spi_set_bitmode
    spi_flash.o(.text) refers to spi_flash.o(.text) for spi_flash_set_write_enable
    spi_flash.o(.text) refers to spi_flash.o(.text) for spi_flash_write_status_reg
    spi_flash.o(.text) refers to spi_flash.o(.bss) for .bss
    spi_flash.o(.text) refers to spi_flash.o(.text) for spi_flash_configure_memory_protection
    spi_flash.o(.text) refers to spi_flash.o(.text) for spi_flash_chip_erase
    spi_flash.o(.text) refers to spi_flash.o(.bss) for .bss
    spi_flash.o(.text) refers to spi_flash.o(.text) for spi_flash_wait_till_ready
    spi_flash.o(.text) refers to spi.o(.text) for spi_set_bitmode
    spi_flash.o(.text) refers to spi_flash.o(.bss) for .bss
    spi_flash.o(.text) refers to spi.o(.text) for spi_set_bitmode
    spi_flash.o(.text) refers to spi_flash.o(.text) for spi_flash_page_fill
    spi_flash.o(.text) refers to spi_flash.o(.bss) for .bss
    spi_flash.o(.text) refers to spi.o(.text) for spi_init
    spi_flash.o(.text) refers to spi_flash.o(.text) for spi_flash_release_from_power_down
    spi_flash.o(.text) refers to spi_flash.o(.text) for spi_flash_auto_detect
    spi.o(.text) refers to gpio.o(.text) for GPIO_SetInactive
    spi.o(.text) refers to spi.o(.bss) for .bss
    spi.o(.text) refers to gpio.o(.text) for GPIO_SetInactive
    spi.o(.text) refers to gpio.o(.text) for GPIO_SetActive
    i2c_eeprom.o(.text) refers to i2c_eeprom.o(.bss) for .bss
    uart2.o(.text) refers to uart2.o(retention_mem_area0) for retention_mem_area0
    uart2.o(.text) refers to uart2.o(.bss) for .bss
    uart2.o(.text) refers to my_timer.o(.bss) for dghData
    uart2.o(.text) refers to uart2.o(.text) for uart2_is_rx_fifo_empty
    uart2.o(.text) refers to uart2.o(.text) for uart2_flow_on
    uart2.o(.text) refers to uart2.o(retention_mem_area0) for retention_mem_area0
    pwm.o(.text) refers to pwm.o(.ARM.__AT_0x50003400) for .ARM.__AT_0x50003400
    pwm.o(.text) refers to pwm.o(.bss) for .bss
    pwm.o(.text) refers to pwm.o(.ARM.__AT_0x50003410) for .ARM.__AT_0x50003410
    rf_580.o(.text) refers to rf_580.o(retention_mem_area0) for retention_mem_area0
    rf_580.o(.text) refers to jump_table.o(jump_table_mem_area) for jump_table_base
    rf_580.o(.text) refers to rf_580.o(retention_mem_area0) for retention_mem_area0
    rf_580.o(.text) refers to rf_580.o(retention_mem_area0) for retention_mem_area0
    rwble.o(.text) refers to arch_system.o(.text) for lld_sleep_lpcycles_2_us_sel_func
    rwble.o(.text) refers to user_periph_setup.o(.text) for periph_init
    rwble.o(.text) refers to syscntl.o(.text) for syscntl_use_lowest_amba_clocks
    rwble.o(.text) refers to adc.o(.text) for adc_get_vbat_sample
    rwble.o(.text) refers to jump_table.o(jump_table_mem_area) for jump_table_base
    rwble.o(.text) refers to rwble.o(retention_mem_area0) for retention_mem_area0
    rwip.o(.text) refers to rwip.o(i.__ARM_common_ll_muluu) for __ARM_common_ll_muluu
    rwip.o(.text) refers to arch_sleep.o(.text) for arch_ble_ext_wakeup_get
    rwip.o(.text) refers to arch_system.o(.text) for check_sys_startup_period
    rwip.o(.text) refers to syscntl.o(.text) for syscntl_use_highest_amba_clocks
    rwip.o(.text) refers to arch_system.o(retention_mem_area0) for rcx_slot_duration_num
    rwip.o(.text) refers to jump_table.o(jump_table_mem_area) for jump_table_base
    rwip.o(.text) refers to rwble.o(retention_mem_area0) for set_boost_low_vbat1v_overhead
    diss.o(.text) refers to diss.o(retention_mem_area0) for retention_mem_area0
    diss.o(.text) refers to diss.o(.constdata) for .constdata
    diss.o(.constdata) refers to diss.o(.constdata) for diss_dis_svc
    diss.o(.constdata) refers to diss.o(.constdata) for diss_manufacturer_name_char
    diss.o(.constdata) refers to diss.o(.constdata) for diss_model_nb_str_char
    diss.o(.constdata) refers to diss.o(.constdata) for diss_serial_nb_str_char
    diss.o(.constdata) refers to diss.o(.constdata) for diss_hard_rev_str_char
    diss.o(.constdata) refers to diss.o(.constdata) for diss_firm_rev_str_char
    diss.o(.constdata) refers to diss.o(.constdata) for diss_sw_rev_str_char
    diss.o(.constdata) refers to diss.o(.constdata) for diss_system_id_char
    diss.o(.constdata) refers to diss.o(.constdata) for diss_ieee_char
    diss.o(.constdata) refers to diss.o(.constdata) for diss_pnp_id_char
    diss.o(.constdata) refers to diss_task.o(.constdata) for diss_state_handler
    diss.o(.constdata) refers to diss_task.o(.constdata) for diss_default_handler
    diss.o(.constdata) refers to diss_task.o(retention_mem_area0) for diss_state
    diss_task.o(.text) refers to diss.o(.text) for diss_compute_cfg_flag
    diss_task.o(.text) refers to prf_utils.o(.text) for prf_server_error_ind_send
    diss_task.o(.text) refers to diss.o(retention_mem_area0) for diss_env
    diss_task.o(.text) refers to diss.o(.constdata) for diss_att_db
    diss_task.o(.constdata) refers to diss_task.o(.text) for diss_create_db_req_handler
    diss_task.o(.constdata) refers to diss_task.o(.text) for diss_set_char_val_req_handler
    diss_task.o(.constdata) refers to diss_task.o(.text) for gapc_disconnect_ind_handler
    diss_task.o(.constdata) refers to diss_task.o(.constdata) for diss_disabled
    diss_task.o(.constdata) refers to diss_task.o(.constdata) for diss_idle
    diss_task.o(.constdata) refers to diss_task.o(.constdata) for diss_default_state
    prf_utils.o(.text) refers to spotar.o(.text) for spotar_init
    prf_utils.o(.text) refers to diss.o(.text) for diss_init
    prf_utils.o(.text) refers to user_custs_config.o(.constdata) for cust_prf_funcs
    custs1.o(.text) refers to custs1.o(retention_mem_area0) for retention_mem_area0
    custs1.o(.text) refers to custs1.o(.constdata) for .constdata
    custs1.o(.constdata) refers to custs1_task.o(.constdata) for custs1_state_handler
    custs1.o(.constdata) refers to custs1_task.o(.constdata) for custs1_default_handler
    custs1.o(.constdata) refers to custs1_task.o(retention_mem_area0) for custs1_state
    custs1_task.o(.text) refers to prf_utils.o(.text) for prf_server_error_ind_send
    custs1_task.o(.text) refers to arch_main.o(.text) for DataConversion
    custs1_task.o(.text) refers to custs1.o(retention_mem_area0) for custs1_env
    custs1_task.o(.text) refers to user_custs_config.o(.constdata) for cust_prf_funcs
    custs1_task.o(.text) refers to my_timer.o(.bss) for dghData
    custs1_task.o(.text) refers to arch_main.o(.bss) for Number_Of_Steps
    custs1_task.o(.text) refers to arch_main.o(.bss) for hr_capture
    custs1_task.o(.text) refers to fk_oled.o(.data) for Steps
    custs1_task.o(.text) refers to custom_common.o(.text) for get_cfg_handle
    custs1_task.o(.text) refers to custs1.o(.text) for custs1_disable
    custs1_task.o(.text) refers to uart2.o(.bss) for led1_value
    custs1_task.o(.constdata) refers to custs1_task.o(.text) for custs1_create_db_req_handler
    custs1_task.o(.constdata) refers to custs1_task.o(.text) for custs1_enable_req_handler
    custs1_task.o(.constdata) refers to custs1_task.o(.text) for gattc_write_cmd_ind_handler
    custs1_task.o(.constdata) refers to custs1_task.o(.text) for gapc_disconnect_ind_handler
    custs1_task.o(.constdata) refers to custs1_task.o(.constdata) for custs1_idle
    custs1_task.o(.constdata) refers to custs1_task.o(.constdata) for custs1_disabled
    custs1_task.o(.constdata) refers to custs1_task.o(.constdata) for custs1_connected
    custs1_task.o(.constdata) refers to custs1_task.o(.constdata) for custs1_default_state
    spotar.o(.text) refers to spotar.o(retention_mem_area0) for retention_mem_area0
    spotar.o(.text) refers to spotar.o(.constdata) for .constdata
    spotar.o(.text) refers to spotar.o(retention_mem_area0) for retention_mem_area0
    spotar.o(.constdata) refers to spotar_task.o(.constdata) for spotar_state_handler
    spotar.o(.constdata) refers to spotar_task.o(.constdata) for spotar_default_handler
    spotar.o(.constdata) refers to spotar_task.o(retention_mem_area0) for spotar_state
    spotar_task.o(.text) refers to prf_utils.o(.text) for prf_server_send_event
    spotar_task.o(.text) refers to spotar.o(retention_mem_area0) for spotar_env
    spotar_task.o(.text) refers to spotar.o(.constdata) for spotar_service
    spotar_task.o(.text) refers to spotar.o(.constdata) for spotar_patch_mem_dev_val
    spotar_task.o(.text) refers to spotar.o(.data) for spotar_patch_mem_dev_char
    spotar_task.o(.text) refers to spotar.o(.constdata) for spotar_gpio_map_val
    spotar_task.o(.text) refers to spotar.o(.data) for spotar_gpio_map_char
    spotar_task.o(.text) refers to spotar.o(.constdata) for spotar_patch_mem_info_val
    spotar_task.o(.text) refers to spotar.o(.data) for spotar_patch_mem_info_char
    spotar_task.o(.text) refers to spotar.o(.constdata) for spotar_patch_len_val
    spotar_task.o(.text) refers to spotar.o(.data) for spotar_patch_len_char
    spotar_task.o(.text) refers to spotar.o(.constdata) for spotar_patch_data_val
    spotar_task.o(.text) refers to spotar.o(.data) for spotar_patch_data_char
    spotar_task.o(.text) refers to spotar.o(.constdata) for spotar_patch_status_val
    spotar_task.o(.text) refers to spotar.o(.data) for spotar_patch_status_char
    spotar_task.o(.text) refers to spotar.o(.text) for spotar_disable
    spotar_task.o(.constdata) refers to spotar_task.o(.text) for spotar_create_db_req_handler
    spotar_task.o(.constdata) refers to spotar_task.o(.text) for spotar_enable_req_handler
    spotar_task.o(.constdata) refers to spotar_task.o(.text) for gattc_write_cmd_ind_handler
    spotar_task.o(.constdata) refers to spotar_task.o(.text) for gapc_disconnect_ind_handler
    spotar_task.o(.constdata) refers to spotar_task.o(.constdata) for spotar_disabled
    spotar_task.o(.constdata) refers to spotar_task.o(.constdata) for spotar_idle
    spotar_task.o(.constdata) refers to spotar_task.o(.constdata) for spotar_active
    spotar_task.o(.constdata) refers to spotar_task.o(.constdata) for spotar_default_state
    app_default_handlers.o(.text) refers to app.o(.text) for app_easy_gap_undirected_advertise_start
    app_default_handlers.o(.text) refers to app_diss.o(.text) for app_dis_init
    app_default_handlers.o(.text) refers to app_spotar.o(.text) for app_spotar_init
    app_default_handlers.o(.text) refers to app.o(.text) for prf_init_srv_perm
    app_default_handlers.o(.text) refers to arch_sleep.o(.text) for arch_set_sleep_mode
    app_default_handlers.o(.text) refers to user_profile.o(.text) for user_app_adv_start
    app_default_handlers.o(.text) refers to app.o(retention_mem_area0) for app_env
    app_default_handlers.o(.text) refers to user_profile.o(.text) for user_app_adv_start
    app_default_handlers.o(.text) refers to app_easy_security.o(.text) for app_easy_security_send_pairing_rsp
    app_default_handlers.o(.text) refers to app_security.o(.text) for app_sec_gen_tk
    app_default_handlers.o(.text) refers to app_easy_security.o(.text) for app_easy_security_tk_exch
    app_default_handlers.o(.text) refers to app_easy_security.o(.text) for app_easy_security_csrk_exch
    app_default_handlers.o(.text) refers to app_security.o(.text) for app_sec_gen_ltk
    app_default_handlers.o(.text) refers to app_easy_security.o(.text) for app_easy_security_set_ltk_exch_from_sec_env
    app_default_handlers.o(.text) refers to app_easy_security.o(.text) for app_easy_security_ltk_exch
    app_default_handlers.o(.text) refers to app_easy_security.o(.text) for app_easy_security_validate_encrypt_req_against_env
    app_default_handlers.o(.text) refers to app.o(.text) for app_easy_gap_confirm
    app_default_handlers.o(.text) refers to app_easy_security.o(.text) for app_easy_security_set_encrypt_req_valid
    app_default_handlers.o(.text) refers to app_easy_security.o(.text) for app_easy_security_encrypt_cfm
    app_default_handlers.o(.text) refers to app_easy_security.o(.text) for app_easy_security_set_encrypt_req_invalid
    app_default_handlers.o(.text) refers to app_security.o(retention_mem_area0) for app_sec_env
    app_default_handlers.o(.constdata) refers to user_profile.o(.text) for user_app_adv_start
    app.o(.text) refers to malloc.o(i.malloc) for malloc
    app.o(.text) refers to malloc.o(i.free) for free
    app.o(.text) refers to app.o(.constdata) for .constdata
    app.o(.text) refers to user_custs_config.o(.constdata) for cust_prf_funcs
    app.o(.text) refers to app.o(retention_mem_area0) for retention_mem_area0
    app.o(.text) refers to app.o(.text) for app_easy_gap_adv_read_from_NVDS
    app.o(.text) refers to app.o(retention_mem_area0) for retention_mem_area0
    app.o(.text) refers to app.o(retention_mem_area0) for retention_mem_area0
    app.o(.text) refers to app.o(.constdata) for .constdata
    app.o(.text) refers to app.o(retention_mem_area0) for retention_mem_area0
    app.o(.text) refers to app.o(.text) for app_easy_gap_advertise_stop
    app.o(.text) refers to app.o(retention_mem_area0) for retention_mem_area0
    app.o(.text) refers to app.o(retention_mem_area0) for retention_mem_area0
    app.o(.text) refers to app.o(retention_mem_area0) for retention_mem_area0
    app.o(.text) refers to app.o(.text) for app_easy_gap_directed_advertise_start_create_msg
    app.o(.text) refers to app.o(.text) for app_easy_gap_directed_advertise_start_create_msg
    app.o(.text) refers to app.o(retention_mem_area0) for retention_mem_area0
    app.o(.text) refers to app.o(.text) for app_easy_gap_non_connectable_advertise_start_create_msg
    app.o(.text) refers to app.o(.text) for app_easy_gap_non_connectable_advertise_start_create_msg
    app.o(.text) refers to app.o(retention_mem_area0) for retention_mem_area0
    app.o(.text) refers to app_easy_timer.o(.text) for app_easy_timer_cancel
    app.o(.text) refers to app.o(.text) for app_easy_gap_undirected_advertise_start
    app.o(.text) refers to app.o(retention_mem_area0) for retention_mem_area0
    app.o(.text) refers to app.o(.text) for app_easy_gap_advertise_stop_handler
    app.o(.text) refers to app_easy_timer.o(.text) for app_easy_timer_cancel
    app.o(.text) refers to app.o(retention_mem_area0) for retention_mem_area0
    app.o(.text) refers to app.o(.text) for app_easy_gap_param_update_msg_create
    app.o(.text) refers to app.o(.text) for app_easy_gap_start_connection_to_msg_create
    app.o(.text) refers to app.o(.text) for app_easy_gap_start_connection_to_msg_create
    app.o(.text) refers to app.o(.text) for app_easy_gap_start_connection_to_msg_create
    app.o(.text) refers to app.o(retention_mem_area0) for retention_mem_area0
    app.o(.text) refers to app.o(.text) for app_easy_gap_dev_config_create_msg
    app.o(.text) refers to app.o(retention_mem_area0) for retention_mem_area0
    app.o(.constdata) refers to app_diss.o(.text) for app_diss_create_db
    app.o(.constdata) refers to app_spotar.o(.text) for app_spotar_create_db
    app.o(.constdata) refers to app_task.o(.constdata) for app_default_handler
    app.o(.constdata) refers to app_task.o(retention_mem_area0) for app_state
    app_task.o(.text) refers to app.o(.text) for app_easy_gap_dev_configure
    app_task.o(.text) refers to app_default_handlers.o(.text) for default_app_on_set_dev_config_complete
    app_task.o(.text) refers to user_profile.o(.text) for user_app_adv_undirect_complete
    app_task.o(.text) refers to app_entry_point.o(.text) for app_std_process_event
    app_task.o(.text) refers to app_task.o(.constdata) for .constdata
    app_task.o(.text) refers to app.o(retention_mem_area0) for app_env
    app_task.o(.constdata) refers to user_profile.o(.text) for user_app_connection
    app_task.o(.constdata) refers to app_default_handlers.o(.text) for default_app_on_set_dev_config_complete
    app_task.o(.constdata) refers to user_profile.o(.text) for user_catch_rest_hndl
    app_task.o(.constdata) refers to app_task.o(.text) for gapm_device_ready_ind_handler
    app_task.o(.constdata) refers to app_entry_point.o(.text) for app_entry_point_handler
    app_task.o(.constdata) refers to app_task.o(.constdata) for app_default_state
    app_security.o(.text) refers to app_security.o(retention_mem_area0) for retention_mem_area0
    app_security.o(.text) refers to app_security.o(retention_mem_area0) for retention_mem_area0
    app_diss.o(.text) refers to app.o(.text) for get_user_prf_srv_perm
    app_diss_task.o(.text) refers to app_entry_point.o(.text) for app_std_process_event
    app_diss_task.o(.text) refers to app_diss_task.o(.constdata) for .constdata
    app_diss_task.o(.constdata) refers to app_diss_task.o(.text) for diss_create_db_cfm_handler
    app_spotar.o(.text) refers to app.o(.text) for get_user_prf_srv_perm
    app_spotar.o(.text) refers to i2c_eeprom.o(.text) for i2c_eeprom_release
    app_spotar.o(.text) refers to spi.o(.text) for spi_release
    app_spotar.o(.text) refers to user_profile.o(.text) for on_spotar_status_change
    app_spotar.o(.text) refers to gpio.o(.text) for GPIO_ConfigurePin
    app_spotar.o(.text) refers to spi_flash.o(.text) for spi_read_flash_memory_man_and_dev_id
    app_spotar.o(.text) refers to app_spotar.o(retention_mem_area0) for retention_mem_area0
    app_spotar.o(.text) refers to app_spotar.o(spotar_patch_area) for spotar_patch_area
    app_spotar.o(.text) refers to spotar.o(retention_mem_area0) for spotar_env
    app_spotar.o(.text) refers to app.o(retention_mem_area0) for app_env
    app_spotar.o(.text) refers to app_spotar.o(spotar_patch_area) for spotar_patch_area
    app_spotar.o(.constdata) refers to user_profile.o(.text) for on_spotar_status_change
    app_spotar_task.o(.text) refers to app_spotar.o(.text) for app_spotar_pd_hdlr
    app_spotar_task.o(.text) refers to app_entry_point.o(.text) for app_std_process_event
    app_spotar_task.o(.text) refers to app_spotar.o(retention_mem_area0) for spota_state
    app_spotar_task.o(.text) refers to app_spotar.o(spotar_patch_area) for spota_new_pd
    app_spotar_task.o(.text) refers to app_spotar_task.o(.constdata) for .constdata
    app_spotar_task.o(.constdata) refers to app_spotar_task.o(.text) for spotar_patch_mem_dev_ind_handler
    app_entry_point.o(.text) refers to app_entry_point.o(.constdata) for .constdata
    app_entry_point.o(.constdata) refers to user_profile.o(.text) for user_catch_rest_hndl
    app_entry_point.o(.constdata) refers to app_task.o(.text) for app_gap_process_handler
    app_entry_point.o(.constdata) refers to app_easy_timer.o(.text) for app_timer_api_process_handler
    app_entry_point.o(.constdata) refers to app_diss_task.o(.text) for app_diss_process_handler
    app_entry_point.o(.constdata) refers to app_spotar_task.o(.text) for app_spotar_process_handler
    app_entry_point.o(.constdata) refers to app_customs_task.o(.text) for app_custs1_process_handler
    app_msg_utils.o(.text) refers to app_msg_utils.o(.text) for app_check_BLE_active
    app_msg_utils.o(.text) refers to arch_sleep.o(.text) for arch_ble_force_wakeup
    app_easy_msg_utils.o(.text) refers to app_easy_msg_utils.o(retention_mem_area0) for retention_mem_area0
    app_easy_msg_utils.o(.text) refers to app_easy_msg_utils.o(.text) for app_easy_msg_find_idx
    app_easy_msg_utils.o(.text) refers to app_easy_msg_utils.o(retention_mem_area0) for retention_mem_area0
    app_easy_msg_utils.o(.text) refers to app_easy_msg_utils.o(.text) for app_easy_msg_find_idx
    app_easy_msg_utils.o(.text) refers to app_easy_msg_utils.o(retention_mem_area0) for retention_mem_area0
    app_easy_msg_utils.o(.text) refers to app_easy_msg_utils.o(.text) for app_easy_msg_set_callback
    app_easy_msg_utils.o(.text) refers to app_easy_msg_utils.o(.text) for app_easy_msg_find_idx
    app_easy_msg_utils.o(.text) refers to app_easy_msg_utils.o(retention_mem_area0) for retention_mem_area0
    app_easy_msg_utils.o(.text) refers to app_easy_msg_utils.o(.text) for app_easy_msg_modify
    app_easy_msg_utils.o(.text) refers to app_easy_msg_utils.o(.text) for app_easy_msg_set
    app_easy_msg_utils.o(.text) refers to app_easy_msg_utils.o(retention_mem_area0) for retention_mem_area0
    app_easy_msg_utils.o(.text) refers to app_easy_msg_utils.o(.text) for app_easy_msg_free_callback
    app_easy_msg_utils.o(.text) refers to app_easy_msg_utils.o(retention_mem_area0) for retention_mem_area0
    app_easy_msg_utils.o(.text) refers to app_easy_msg_utils.o(retention_mem_area0) for retention_mem_area0
    app_easy_msg_utils.o(.text) refers to app_easy_msg_utils.o(.text) for app_easy_msg_call_callback
    app_easy_timer.o(.text) refers to app_msg_utils.o(.text) for app_check_BLE_active
    app_easy_timer.o(.text) refers to arch_sleep.o(.text) for arch_ble_force_wakeup
    app_easy_timer.o(.text) refers to app_easy_timer.o(retention_mem_area0) for retention_mem_area0
    app_easy_timer.o(.text) refers to app_easy_timer.o(.text) for timer_canceled_handler
    app_easy_timer.o(.text) refers to app_easy_timer.o(.text) for timer_modified_handler
    app_easy_timer.o(.text) refers to app_easy_timer.o(retention_mem_area0) for retention_mem_area0
    app_easy_timer.o(.text) refers to app_easy_timer.o(.text) for timer_modified_handler
    app_easy_timer.o(.text) refers to app_easy_timer.o(.text) for app_easy_timer_cancel
    app_easy_timer.o(.text) refers to app_easy_timer.o(retention_mem_area0) for retention_mem_area0
    app_easy_timer.o(.text) refers to app_easy_timer.o(.text) for timer_canceled_handler
    app_easy_security.o(.text) refers to app_easy_security.o(retention_mem_area0) for retention_mem_area0
    app_easy_security.o(.text) refers to app_easy_security.o(retention_mem_area0) for retention_mem_area0
    app_easy_security.o(.text) refers to app_easy_security.o(retention_mem_area0) for retention_mem_area0
    app_easy_security.o(.text) refers to app_easy_security.o(retention_mem_area0) for retention_mem_area0
    app_easy_security.o(.text) refers to app_security.o(.text) for app_sec_gen_csrk
    app_easy_security.o(.text) refers to app_easy_security.o(retention_mem_area0) for retention_mem_area0
    app_easy_security.o(.text) refers to app_security.o(retention_mem_area0) for app_sec_env
    app_easy_security.o(.text) refers to app_security.o(.text) for app_sec_gen_csrk
    app_easy_security.o(.text) refers to app_easy_security.o(retention_mem_area0) for retention_mem_area0
    app_easy_security.o(.text) refers to app_security.o(retention_mem_area0) for app_sec_env
    app_easy_security.o(.text) refers to app_easy_security.o(.text) for app_easy_security_bond_cfm_ltk_exch_create_msg
    app_easy_security.o(.text) refers to app_easy_security.o(.text) for app_easy_security_bond_cfm_ltk_exch_create_msg
    app_easy_security.o(.text) refers to app_easy_security.o(retention_mem_area0) for retention_mem_area0
    app_easy_security.o(.text) refers to app_easy_security.o(.text) for app_easy_security_bond_cfm_ltk_exch_create_msg
    app_easy_security.o(.text) refers to app_security.o(retention_mem_area0) for app_sec_env
    app_easy_security.o(.text) refers to app_easy_security.o(.text) for app_easy_security_bond_cfm_ltk_exch_create_msg
    app_easy_security.o(.text) refers to app_easy_security.o(retention_mem_area0) for retention_mem_area0
    app_easy_security.o(.text) refers to app_easy_security.o(retention_mem_area0) for retention_mem_area0
    app_easy_security.o(.text) refers to app_security.o(retention_mem_area0) for app_sec_env
    app_easy_security.o(.text) refers to app_easy_security.o(retention_mem_area0) for retention_mem_area0
    app_easy_security.o(.text) refers to app_security.o(retention_mem_area0) for app_sec_env
    app_easy_security.o(.text) refers to app_easy_security.o(retention_mem_area0) for retention_mem_area0
    app_easy_security.o(.text) refers to app_easy_security.o(retention_mem_area0) for retention_mem_area0
    app_easy_security.o(.text) refers to app_easy_security.o(.text) for app_easy_security_request_get_active
    app_easy_security.o(.text) refers to app_easy_security.o(retention_mem_area0) for retention_mem_area0
    app_easy_security.o(.text) refers to app_easy_security.o(retention_mem_area0) for retention_mem_area0
    app_customs.o(.text) refers to app.o(.text) for get_user_prf_srv_perm
    app_customs.o(.text) refers to user_custs_config.o(.constdata) for cust_prf_funcs
    app_customs_task.o(.text) refers to app_entry_point.o(.text) for app_std_process_event
    app_customs_task.o(.text) refers to app_customs_task.o(.constdata) for .constdata
    app_customs_task.o(.constdata) refers to app_customs_task.o(.text) for app_custs1_create_db_cfm_handler
    user_custs_config.o(.constdata) refers to user_custs1_def.o(.constdata) for custs1_att_db
    user_custs_config.o(.constdata) refers to app_customs.o(.text) for app_custs1_create_db
    user_custs_config.o(.constdata) refers to custs1.o(.text) for custs1_init
    user_custs1_def.o(.constdata) refers to user_custs1_def.o(.constdata) for custs1_svc
    user_custs1_def.o(.constdata) refers to user_custs1_def.o(.constdata) for custs1_indicateable_char
    user_custs1_def.o(.constdata) refers to user_custs1_def.o(.constdata) for custs1_indicateable_desc
    user_custs1_def.o(.constdata) refers to user_custs1_def.o(.constdata) for custs1_long_value_char
    user_custs1_def.o(.constdata) refers to user_custs1_def.o(.constdata) for custs1_long_value_desc
    user_periph_setup.o(.text) refers to gpio.o(.text) for GPIO_ConfigurePin
    user_periph_setup.o(.text) refers to arch_patch.o(.text) for patch_func
    user_periph_setup.o(.text) refers to uart2.o(.text) for uart2_init
    user_periph_setup.o(.text) refers to spi.o(.text) for spi_init
    user_periph_setup.o(.text) refers to spi_flash.o(.text) for spi_flash_init
    user_periph_setup.o(.text) refers to fk_oled.o(.text) for OLED_Init
    user_periph_setup.o(.text) refers to my_int.o(.text) for my_int_init
    user_periph_setup.o(.text) refers to my_timer.o(.text) for my_timer_init
    user_profile.o(.text) refers to app.o(.text) for app_easy_gap_advertise_stop
    user_profile.o(.text) refers to app_default_handlers.o(.text) for default_app_on_init
    user_profile.o(.text) refers to app_easy_timer.o(.text) for app_easy_timer
    user_profile.o(.text) refers to user_profile.o(retention_mem_area0) for retention_mem_area0
    user_profile.o(.text) refers to user_profile.o(.bss) for .bss
    user_profile.o(.text) refers to app.o(retention_mem_area0) for app_env
    user_profile.o(.text) refers to app_spotar.o(retention_mem_area0) for spota_state
    fk_oled.o(.text) refers to gpio.o(.text) for GPIO_SetActive
    fk_oled.o(.text) refers to spi.o(.text) for lcd_cs_low
    fk_oled.o(.text) refers to spi_flash.o(.text) for spi_flash_read_data
    fk_oled.o(.text) refers to arch_main.o(.text) for DataConversion
    fk_oled.o(.text) refers to fk_oled.o(.bss) for .bss
    fk_oled.o(.text) refers to my_timer.o(.bss) for dghData
    fk_oled.o(.text) refers to fk_oled.o(.data) for .data
    fk_oled.o(.text) refers to my_adc.o(.data) for power_level
    fk_oled.o(.text) refers to fk_oled.o(.text) for Write
    fk_oled.o(.text) refers to spi_flash.o(.text) for spi_flash_read_data
    fk_oled.o(.text) refers to fk_oled.o(.text) for set_position
    fk_oled.o(.text) refers to fk_oled.o(.bss) for .bss
    my_int.o(.text) refers to gpio.o(.text) for GPIO_RegisterCallback
    my_int.o(.text) refers to my_int.o(.data) for .data
    my_int.o(.text) refers to my_int.o(.bss) for .bss
    my_timer.o(.text) refers to gpio.o(.text) for GPIO_SetInactive
    my_timer.o(.text) refers to my_adc.o(.text) for adc_test
    my_timer.o(.text) refers to pwm.o(i.timer0_stop) for timer0_stop
    my_timer.o(.text) refers to pwm.o(i.timer0_register_callback) for timer0_register_callback
    my_timer.o(.text) refers to pwm.o(i.set_tmr_enable) for set_tmr_enable
    my_timer.o(.text) refers to pwm.o(i.set_tmr_div) for set_tmr_div
    my_timer.o(.text) refers to pwm.o(i.timer0_set_pwm_high_counter) for timer0_set_pwm_high_counter
    my_timer.o(.text) refers to pwm.o(i.timer0_set_pwm_low_counter) for timer0_set_pwm_low_counter
    my_timer.o(.text) refers to pwm.o(.text) for timer0_init
    my_timer.o(.text) refers to pwm.o(i.timer0_set_pwm_on_counter) for timer0_set_pwm_on_counter
    my_timer.o(.text) refers to pwm.o(i.timer0_start) for timer0_start
    my_timer.o(.text) refers to fk_oled.o(.text) for Write
    my_timer.o(.text) refers to my_timer.o(.bss) for .bss
    my_timer.o(.text) refers to my_int.o(.bss) for Touch_release
    lis2ds12_acc_driver.o(.text) refers to i2c_eeprom.o(.text) for i2c_eeprom_read_byte
    lis2ds12_acc_driver.o(.text) refers to lis2ds12_acc_driver.o(.text) for LIS2DS12_ACC_ReadReg
    lis2ds12_acc_driver.o(.text) refers to lis2ds12_acc_driver.o(.text) for LIS2DS12_ACC_ReadReg
    lis2ds12_acc_driver.o(.text) refers to lis2ds12_acc_driver.o(.text) for LIS2DS12_ACC_ReadReg
    lis2ds12_acc_driver.o(.text) refers to lis2ds12_acc_driver.o(.text) for LIS2DS12_ACC_ReadReg
    lis2ds12_acc_driver.o(.text) refers to lis2ds12_acc_driver.o(.text) for LIS2DS12_ACC_ReadReg
    lis2ds12_acc_driver.o(.text) refers to lis2ds12_acc_driver.o(.text) for LIS2DS12_ACC_ReadReg
    lis2ds12_acc_driver.o(.text) refers to lis2ds12_acc_driver.o(.text) for LIS2DS12_ACC_ReadReg
    lis2ds12_acc_driver.o(.text) refers to lis2ds12_acc_driver.o(.text) for LIS2DS12_ACC_ReadReg
    lis2ds12_acc_driver.o(.text) refers to lis2ds12_acc_driver.o(.text) for LIS2DS12_ACC_ReadReg
    lis2ds12_acc_driver.o(.text) refers to lis2ds12_acc_driver.o(.text) for LIS2DS12_ACC_ReadReg
    lis2ds12_acc_driver.o(.text) refers to lis2ds12_acc_driver.o(.text) for LIS2DS12_ACC_ReadReg
    lis2ds12_acc_driver.o(.text) refers to lis2ds12_acc_driver.o(.text) for LIS2DS12_ACC_ReadReg
    lis2ds12_acc_driver.o(.text) refers to lis2ds12_acc_driver.o(.text) for LIS2DS12_ACC_ReadReg
    lis2ds12_acc_driver.o(.text) refers to lis2ds12_acc_driver.o(.text) for LIS2DS12_ACC_ReadReg
    lis2ds12_acc_driver.o(.text) refers to lis2ds12_acc_driver.o(.text) for LIS2DS12_ACC_ReadReg
    lis2ds12_acc_driver.o(.text) refers to lis2ds12_acc_driver.o(.text) for LIS2DS12_ACC_ReadReg
    lis2ds12_acc_driver.o(.text) refers to lis2ds12_acc_driver.o(.text) for LIS2DS12_ACC_ReadReg
    lis2ds12_acc_driver.o(.text) refers to lis2ds12_acc_driver.o(.text) for LIS2DS12_ACC_ReadReg
    lis2ds12_acc_driver.o(.text) refers to lis2ds12_acc_driver.o(.text) for LIS2DS12_ACC_ReadReg
    lis2ds12_acc_driver.o(.text) refers to lis2ds12_acc_driver.o(.text) for LIS2DS12_ACC_ReadReg
    lis2ds12_acc_driver.o(.text) refers to lis2ds12_acc_driver.o(.text) for LIS2DS12_ACC_ReadReg
    lis2ds12_acc_driver.o(.text) refers to lis2ds12_acc_driver.o(.text) for LIS2DS12_ACC_ReadReg
    lis2ds12_acc_driver.o(.text) refers to lis2ds12_acc_driver.o(.text) for LIS2DS12_ACC_ReadReg
    lis2ds12_acc_driver.o(.text) refers to lis2ds12_acc_driver.o(.text) for LIS2DS12_ACC_ReadReg
    lis2ds12_acc_driver.o(.text) refers to lis2ds12_acc_driver.o(.text) for LIS2DS12_ACC_ReadReg
    lis2ds12_acc_driver.o(.text) refers to lis2ds12_acc_driver.o(.text) for LIS2DS12_ACC_ReadReg
    lis2ds12_acc_driver.o(.text) refers to lis2ds12_acc_driver.o(.text) for LIS2DS12_ACC_ReadReg
    lis2ds12_acc_driver.o(.text) refers to lis2ds12_acc_driver.o(.text) for LIS2DS12_ACC_ReadReg
    lis2ds12_acc_driver.o(.text) refers to lis2ds12_acc_driver.o(.text) for LIS2DS12_ACC_ReadReg
    lis2ds12_acc_driver.o(.text) refers to lis2ds12_acc_driver.o(.text) for LIS2DS12_ACC_ReadReg
    lis2ds12_acc_driver.o(.text) refers to lis2ds12_acc_driver.o(.text) for LIS2DS12_ACC_ReadReg
    lis2ds12_acc_driver.o(.text) refers to lis2ds12_acc_driver.o(.text) for LIS2DS12_ACC_ReadReg
    lis2ds12_acc_driver.o(.text) refers to lis2ds12_acc_driver.o(.text) for LIS2DS12_ACC_ReadReg
    lis2ds12_acc_driver.o(.text) refers to lis2ds12_acc_driver.o(.text) for LIS2DS12_ACC_ReadReg
    lis2ds12_acc_driver.o(.text) refers to lis2ds12_acc_driver.o(.text) for LIS2DS12_ACC_ReadReg
    lis2ds12_acc_driver.o(.text) refers to lis2ds12_acc_driver.o(.text) for LIS2DS12_ACC_ReadReg
    lis2ds12_acc_driver.o(.text) refers to lis2ds12_acc_driver.o(.text) for LIS2DS12_ACC_ReadReg
    lis2ds12_acc_driver.o(.text) refers to lis2ds12_acc_driver.o(.text) for LIS2DS12_ACC_ReadReg
    lis2ds12_acc_driver.o(.text) refers to lis2ds12_acc_driver.o(.text) for LIS2DS12_ACC_ReadReg
    lis2ds12_acc_driver.o(.text) refers to lis2ds12_acc_driver.o(.text) for LIS2DS12_ACC_ReadReg
    lis2ds12_acc_driver.o(.text) refers to lis2ds12_acc_driver.o(.text) for LIS2DS12_ACC_ReadReg
    lis2ds12_acc_driver.o(.text) refers to lis2ds12_acc_driver.o(.text) for LIS2DS12_ACC_ReadReg
    lis2ds12_acc_driver.o(.text) refers to lis2ds12_acc_driver.o(.text) for LIS2DS12_ACC_ReadReg
    lis2ds12_acc_driver.o(.text) refers to lis2ds12_acc_driver.o(.text) for LIS2DS12_ACC_ReadReg
    lis2ds12_acc_driver.o(.text) refers to lis2ds12_acc_driver.o(.text) for LIS2DS12_ACC_ReadReg
    lis2ds12_acc_driver.o(.text) refers to lis2ds12_acc_driver.o(.text) for LIS2DS12_ACC_ReadReg
    lis2ds12_acc_driver.o(.text) refers to lis2ds12_acc_driver.o(.text) for LIS2DS12_ACC_ReadReg
    lis2ds12_acc_driver.o(.text) refers to lis2ds12_acc_driver.o(.text) for LIS2DS12_ACC_ReadReg
    lis2ds12_acc_driver.o(.text) refers to lis2ds12_acc_driver.o(.text) for LIS2DS12_ACC_ReadReg
    lis2ds12_acc_driver.o(.text) refers to lis2ds12_acc_driver.o(.text) for LIS2DS12_ACC_ReadReg
    lis2ds12_acc_driver.o(.text) refers to lis2ds12_acc_driver.o(.text) for LIS2DS12_ACC_ReadReg
    lis2ds12_acc_driver.o(.text) refers to lis2ds12_acc_driver.o(.text) for LIS2DS12_ACC_ReadReg
    lis2ds12_acc_driver.o(.text) refers to lis2ds12_acc_driver.o(.text) for LIS2DS12_ACC_ReadReg
    lis2ds12_acc_driver.o(.text) refers to lis2ds12_acc_driver.o(.text) for LIS2DS12_ACC_ReadReg
    lis2ds12_acc_driver.o(.text) refers to lis2ds12_acc_driver.o(.text) for LIS2DS12_ACC_ReadReg
    lis2ds12_acc_driver.o(.text) refers to lis2ds12_acc_driver.o(.text) for LIS2DS12_ACC_ReadReg
    lis2ds12_acc_driver.o(.text) refers to lis2ds12_acc_driver.o(.text) for LIS2DS12_ACC_ReadReg
    lis2ds12_acc_driver.o(.text) refers to lis2ds12_acc_driver.o(.text) for LIS2DS12_ACC_ReadReg
    lis2ds12_acc_driver.o(.text) refers to lis2ds12_acc_driver.o(.text) for LIS2DS12_ACC_ReadReg
    lis2ds12_acc_driver.o(.text) refers to lis2ds12_acc_driver.o(.text) for LIS2DS12_ACC_ReadReg
    lis2ds12_acc_driver.o(.text) refers to lis2ds12_acc_driver.o(.text) for LIS2DS12_ACC_ReadReg
    lis2ds12_acc_driver.o(.text) refers to lis2ds12_acc_driver.o(.text) for LIS2DS12_ACC_ReadReg
    lis2ds12_acc_driver.o(.text) refers to lis2ds12_acc_driver.o(.text) for LIS2DS12_ACC_ReadReg
    lis2ds12_acc_driver.o(.text) refers to lis2ds12_acc_driver.o(.text) for LIS2DS12_ACC_ReadReg
    lis2ds12_acc_driver.o(.text) refers to lis2ds12_acc_driver.o(.text) for LIS2DS12_ACC_ReadReg
    lis2ds12_acc_driver.o(.text) refers to lis2ds12_acc_driver.o(.text) for LIS2DS12_ACC_ReadReg
    lis2ds12_acc_driver.o(.text) refers to lis2ds12_acc_driver.o(.text) for LIS2DS12_ACC_ReadReg
    lis2ds12_acc_driver.o(.text) refers to lis2ds12_acc_driver.o(.text) for LIS2DS12_ACC_ReadReg
    lis2ds12_acc_driver.o(.text) refers to lis2ds12_acc_driver.o(.text) for LIS2DS12_ACC_ReadReg
    lis2ds12_acc_driver.o(.text) refers to lis2ds12_acc_driver.o(.text) for LIS2DS12_ACC_ReadReg
    lis2ds12_acc_driver.o(.text) refers to lis2ds12_acc_driver.o(.text) for LIS2DS12_ACC_ReadReg
    lis2ds12_acc_driver.o(.text) refers to lis2ds12_acc_driver.o(.text) for LIS2DS12_ACC_ReadReg
    lis2ds12_acc_driver.o(.text) refers to lis2ds12_acc_driver.o(.text) for LIS2DS12_ACC_ReadReg
    lis2ds12_acc_driver.o(.text) refers to lis2ds12_acc_driver.o(.text) for LIS2DS12_ACC_ReadReg
    lis2ds12_acc_driver.o(.text) refers to lis2ds12_acc_driver.o(.text) for LIS2DS12_ACC_ReadReg
    lis2ds12_acc_driver.o(.text) refers to lis2ds12_acc_driver.o(.text) for LIS2DS12_ACC_ReadReg
    lis2ds12_acc_driver.o(.text) refers to lis2ds12_acc_driver.o(.text) for LIS2DS12_ACC_ReadReg
    lis2ds12_acc_driver.o(.text) refers to lis2ds12_acc_driver.o(.text) for LIS2DS12_ACC_ReadReg
    lis2ds12_acc_driver.o(.text) refers to lis2ds12_acc_driver.o(.text) for LIS2DS12_ACC_ReadReg
    lis2ds12_acc_driver.o(.text) refers to lis2ds12_acc_driver.o(.text) for LIS2DS12_ACC_ReadReg
    lis2ds12_acc_driver.o(.text) refers to lis2ds12_acc_driver.o(.text) for LIS2DS12_ACC_ReadReg
    lis2ds12_acc_driver.o(.text) refers to lis2ds12_acc_driver.o(.text) for LIS2DS12_ACC_ReadReg
    lis2ds12_acc_driver.o(.text) refers to lis2ds12_acc_driver.o(.text) for LIS2DS12_ACC_ReadReg
    lis2ds12_acc_driver.o(.text) refers to lis2ds12_acc_driver.o(.text) for LIS2DS12_ACC_ReadReg
    lis2ds12_acc_driver.o(.text) refers to lis2ds12_acc_driver.o(.text) for LIS2DS12_ACC_ReadReg
    lis2ds12_acc_driver.o(.text) refers to lis2ds12_acc_driver.o(.text) for LIS2DS12_ACC_ReadReg
    lis2ds12_acc_driver.o(.text) refers to lis2ds12_acc_driver.o(.text) for LIS2DS12_ACC_ReadReg
    lis2ds12_acc_driver.o(.text) refers to lis2ds12_acc_driver.o(.text) for LIS2DS12_ACC_ReadReg
    lis2ds12_acc_driver.o(.text) refers to lis2ds12_acc_driver.o(.text) for LIS2DS12_ACC_ReadReg
    lis2ds12_acc_driver.o(.text) refers to lis2ds12_acc_driver.o(.text) for LIS2DS12_ACC_ReadReg
    lis2ds12_acc_driver.o(.text) refers to lis2ds12_acc_driver.o(.text) for LIS2DS12_ACC_ReadReg
    lis2ds12_acc_driver.o(.text) refers to lis2ds12_acc_driver.o(.text) for LIS2DS12_ACC_ReadReg
    lis2ds12_acc_driver.o(.text) refers to lis2ds12_acc_driver.o(.text) for LIS2DS12_ACC_ReadReg
    lis2ds12_acc_driver.o(.text) refers to lis2ds12_acc_driver.o(.text) for LIS2DS12_ACC_ReadReg
    lis2ds12_acc_driver.o(.text) refers to lis2ds12_acc_driver.o(.text) for LIS2DS12_ACC_ReadReg
    lis2ds12_acc_driver.o(.text) refers to lis2ds12_acc_driver.o(.text) for LIS2DS12_ACC_ReadReg
    lis2ds12_acc_driver.o(.text) refers to lis2ds12_acc_driver.o(.text) for LIS2DS12_ACC_ReadReg
    lis2ds12_acc_driver.o(.text) refers to lis2ds12_acc_driver.o(.text) for LIS2DS12_ACC_ReadReg
    lis2ds12_acc_driver.o(.text) refers to lis2ds12_acc_driver.o(.text) for LIS2DS12_ACC_ReadReg
    lis2ds12_acc_driver.o(.text) refers to lis2ds12_acc_driver.o(.text) for LIS2DS12_ACC_ReadReg
    lis2ds12_acc_driver.o(.text) refers to lis2ds12_acc_driver.o(.text) for LIS2DS12_ACC_ReadReg
    lis2ds12_acc_driver.o(.text) refers to lis2ds12_acc_driver.o(.text) for LIS2DS12_ACC_ReadReg
    lis2ds12_acc_driver.o(.text) refers to lis2ds12_acc_driver.o(.text) for LIS2DS12_ACC_ReadReg
    lis2ds12_acc_driver.o(.text) refers to lis2ds12_acc_driver.o(.text) for LIS2DS12_ACC_ReadReg
    lis2ds12_acc_driver.o(.text) refers to lis2ds12_acc_driver.o(.text) for LIS2DS12_ACC_ReadReg
    lis2ds12_acc_driver.o(.text) refers to lis2ds12_acc_driver.o(.text) for LIS2DS12_ACC_ReadReg
    lis2ds12_acc_driver.o(.text) refers to lis2ds12_acc_driver.o(.text) for LIS2DS12_ACC_ReadReg
    lis2ds12_acc_driver.o(.text) refers to lis2ds12_acc_driver.o(.text) for LIS2DS12_ACC_ReadReg
    lis2ds12_acc_driver.o(.text) refers to lis2ds12_acc_driver.o(.text) for LIS2DS12_ACC_ReadReg
    lis2ds12_acc_driver.o(.text) refers to lis2ds12_acc_driver.o(.text) for LIS2DS12_ACC_ReadReg
    lis2ds12_acc_driver.o(.text) refers to lis2ds12_acc_driver.o(.text) for LIS2DS12_ACC_ReadReg
    lis2ds12_acc_driver.o(.text) refers to lis2ds12_acc_driver.o(.text) for LIS2DS12_ACC_ReadReg
    lis2ds12_acc_driver.o(.text) refers to lis2ds12_acc_driver.o(.text) for LIS2DS12_ACC_ReadReg
    lis2ds12_acc_driver.o(.text) refers to lis2ds12_acc_driver.o(.text) for LIS2DS12_ACC_ReadReg
    lis2ds12_acc_driver.o(.text) refers to lis2ds12_acc_driver.o(.text) for LIS2DS12_ACC_ReadReg
    lis2ds12_acc_driver.o(.text) refers to lis2ds12_acc_driver.o(.text) for LIS2DS12_ACC_ReadReg
    lis2ds12_acc_driver.o(.text) refers to lis2ds12_acc_driver.o(.text) for LIS2DS12_ACC_ReadReg
    lis2ds12_acc_driver.o(.text) refers to lis2ds12_acc_driver.o(.text) for LIS2DS12_ACC_ReadReg
    lis2ds12_acc_driver.o(.text) refers to lis2ds12_acc_driver.o(.text) for LIS2DS12_ACC_ReadReg
    lis2ds12_acc_driver.o(.text) refers to lis2ds12_acc_driver.o(.text) for LIS2DS12_ACC_ReadReg
    lis2ds12_acc_driver.o(.text) refers to lis2ds12_acc_driver.o(.text) for LIS2DS12_ACC_ReadReg
    lis2ds12_acc_driver.o(.text) refers to lis2ds12_acc_driver.o(.text) for LIS2DS12_ACC_ReadReg
    lis2ds12_acc_driver.o(.text) refers to lis2ds12_acc_driver.o(.text) for LIS2DS12_ACC_ReadReg
    lis2ds12_acc_driver.o(.text) refers to lis2ds12_acc_driver.o(.text) for LIS2DS12_ACC_ReadReg
    lis2ds12_acc_driver.o(.text) refers to lis2ds12_acc_driver.o(.text) for LIS2DS12_ACC_ReadReg
    lis2ds12_acc_driver.o(.text) refers to lis2ds12_acc_driver.o(.text) for LIS2DS12_ACC_ReadReg
    lis2ds12_acc_driver.o(.text) refers to lis2ds12_acc_driver.o(.text) for LIS2DS12_ACC_ReadReg
    lis2ds12_acc_driver.o(.text) refers to lis2ds12_acc_driver.o(.text) for LIS2DS12_ACC_ReadReg
    lis2ds12_acc_driver.o(.text) refers to lis2ds12_acc_driver.o(.text) for LIS2DS12_ACC_ReadReg
    lis2ds12_acc_driver.o(.text) refers to lis2ds12_acc_driver.o(.text) for LIS2DS12_ACC_ReadReg
    lis2ds12_acc_driver.o(.text) refers to lis2ds12_acc_driver.o(.text) for LIS2DS12_ACC_ReadReg
    lis2ds12_acc_driver.o(.text) refers to lis2ds12_acc_driver.o(.text) for LIS2DS12_ACC_ReadReg
    lis2ds12_acc_driver.o(.text) refers to lis2ds12_acc_driver.o(.text) for LIS2DS12_ACC_ReadReg
    lis2ds12_acc_driver.o(.text) refers to lis2ds12_acc_driver.o(.text) for LIS2DS12_ACC_ReadReg
    lis2ds12_acc_driver.o(.text) refers to lis2ds12_acc_driver.o(.text) for LIS2DS12_ACC_ReadReg
    lis2ds12_acc_driver.o(.text) refers to lis2ds12_acc_driver.o(.text) for LIS2DS12_ACC_ReadReg
    lis2ds12_acc_driver.o(.text) refers to lis2ds12_acc_driver.o(.text) for LIS2DS12_ACC_ReadReg
    lis2ds12_acc_driver.o(.text) refers to lis2ds12_acc_driver.o(.text) for LIS2DS12_ACC_ReadReg
    lis2ds12_acc_driver.o(.text) refers to lis2ds12_acc_driver.o(.text) for LIS2DS12_ACC_ReadReg
    lis2ds12_acc_driver.o(.text) refers to lis2ds12_acc_driver.o(.text) for LIS2DS12_ACC_ReadReg
    lis2ds12_acc_driver.o(.text) refers to lis2ds12_acc_driver.o(.text) for LIS2DS12_ACC_ReadReg
    lis2ds12_acc_driver.o(.text) refers to lis2ds12_acc_driver.o(.text) for LIS2DS12_ACC_ReadReg
    lis2ds12_acc_driver.o(.text) refers to lis2ds12_acc_driver.o(.text) for LIS2DS12_ACC_ReadReg
    lis2ds12_acc_driver.o(.text) refers to lis2ds12_acc_driver.o(.text) for LIS2DS12_ACC_ReadReg
    lis2ds12_acc_driver.o(.text) refers to lis2ds12_acc_driver.o(.text) for LIS2DS12_ACC_ReadReg
    lis2ds12_acc_driver.o(.text) refers to lis2ds12_acc_driver.o(.text) for LIS2DS12_ACC_ReadReg
    lis2ds12_acc_driver.o(.text) refers to lis2ds12_acc_driver.o(.text) for LIS2DS12_ACC_ReadReg
    lis2ds12_acc_driver.o(.text) refers to lis2ds12_acc_driver.o(.text) for LIS2DS12_ACC_ReadReg
    lis2ds12_acc_driver.o(.text) refers to lis2ds12_acc_driver.o(.text) for LIS2DS12_ACC_ReadReg
    lis2ds12_acc_driver.o(.text) refers to lis2ds12_acc_driver.o(.text) for LIS2DS12_ACC_ReadReg
    lis2ds12_acc_driver.o(.text) refers to lis2ds12_acc_driver.o(.text) for LIS2DS12_ACC_ReadReg
    lis2ds12_acc_driver.o(.text) refers to lis2ds12_acc_driver.o(.text) for LIS2DS12_ACC_ReadReg
    lis2ds12_acc_driver.o(.text) refers to lis2ds12_acc_driver.o(.text) for LIS2DS12_ACC_ReadReg
    lis2ds12_acc_driver.o(.text) refers to lis2ds12_acc_driver.o(.text) for LIS2DS12_ACC_ReadReg
    lis2ds12_acc_driver.o(.text) refers to lis2ds12_acc_driver.o(.text) for LIS2DS12_ACC_ReadReg
    lis2ds12_acc_driver.o(.text) refers to lis2ds12_acc_driver.o(.text) for LIS2DS12_ACC_ReadReg
    lis2ds12_acc_driver.o(.text) refers to lis2ds12_acc_driver.o(.text) for LIS2DS12_ACC_ReadReg
    lis2ds12_acc_driver.o(.text) refers to lis2ds12_acc_driver.o(.text) for LIS2DS12_ACC_ReadReg
    lis2ds12_acc_driver.o(.text) refers to lis2ds12_acc_driver.o(.text) for LIS2DS12_ACC_ReadReg
    lis2ds12_acc_driver.o(.text) refers to lis2ds12_acc_driver.o(.text) for LIS2DS12_ACC_ReadReg
    lis2ds12_acc_driver.o(.text) refers to lis2ds12_acc_driver.o(.text) for LIS2DS12_ACC_ReadReg
    lis2ds12_acc_driver.o(.text) refers to lis2ds12_acc_driver.o(.text) for LIS2DS12_ACC_ReadReg
    lis2ds12_acc_driver.o(.text) refers to lis2ds12_acc_driver.o(.text) for LIS2DS12_ACC_ReadReg
    lis2ds12_acc_driver.o(.text) refers to lis2ds12_acc_driver.o(.text) for LIS2DS12_ACC_ReadReg
    lis2ds12_acc_driver.o(.text) refers to lis2ds12_acc_driver.o(.text) for LIS2DS12_ACC_ReadReg
    lis2ds12_acc_driver.o(.text) refers to lis2ds12_acc_driver.o(.text) for LIS2DS12_ACC_SwapHighLowByte
    lis2ds12_acc_driver.o(.text) refers to lis2ds12_acc_driver.o(.text) for LIS2DS12_ACC_ReadReg
    lis2ds12_acc_driver.o(.text) refers to lis2ds12_acc_driver.o(.text) for LIS2DS12_ACC_ReadReg
    lis2ds12_acc_driver.o(.text) refers to lis2ds12_acc_driver.o(.text) for LIS2DS12_ACC_Get_Raw_Acceleration
    lis2ds12_acc_driver.o(.text) refers to llmul.o(.text) for __aeabi_lmul
    lis2ds12_acc_driver.o(.text) refers to ldiv.o(.text) for __aeabi_ldivmod
    lis2ds12_acc_driver.o(.text) refers to lis2ds12_acc_driver.o(.constdata) for .constdata
    my_adc.o(.text) refers to adc.o(.text) for adc_calibrate
    my_adc.o(.text) refers to battery.o(.text) for battery_get_lvl
    my_adc.o(.text) refers to my_adc.o(.data) for .data
    entry.o(.ARM.Collect$$$$00000000) refers (Special) to entry10a.o(.ARM.Collect$$$$0000000D) for __rt_final_cpp
    entry.o(.ARM.Collect$$$$00000000) refers (Special) to entry11a.o(.ARM.Collect$$$$0000000F) for __rt_final_exit
    entry.o(.ARM.Collect$$$$00000000) refers (Special) to entry7b.o(.ARM.Collect$$$$00000008) for _main_clock
    entry.o(.ARM.Collect$$$$00000000) refers (Special) to entry8b.o(.ARM.Collect$$$$0000000A) for _main_cpp_init
    entry.o(.ARM.Collect$$$$00000000) refers (Special) to entry9a.o(.ARM.Collect$$$$0000000B) for _main_init
    entry.o(.ARM.Collect$$$$00000000) refers (Special) to entry5.o(.ARM.Collect$$$$00000004) for _main_scatterload
    entry.o(.ARM.Collect$$$$00000000) refers (Special) to entry2.o(.ARM.Collect$$$$00000001) for _main_stk
    ldiv.o(.text) refers to uldiv.o(.text) for __aeabi_uldivmod
    malloc.o(i.free) refers to mvars.o(.data) for __microlib_freelist
    malloc.o(i.malloc) refers to mvars.o(.data) for __microlib_freelist_initialised
    malloc.o(i.malloc) refers to mvars.o(.data) for __microlib_freelist
    malloc.o(i.malloc) refers to boot_vectors.o(HEAP) for __heap_base
    mallocr.o(i.__free$realloc) refers to mvars.o(.data) for __microlib_freelist
    mallocr.o(i.__malloc$realloc) refers to mallocr.o(i.internal_alloc) for internal_alloc
    mallocr.o(i.__malloc$realloc) refers to mvars.o(.data) for __microlib_freelist_initialised
    mallocr.o(i.__malloc$realloc) refers to boot_vectors.o(HEAP) for __heap_base
    mallocr.o(i.__malloc$realloc) refers to mvars.o(.data) for __microlib_freelist
    mallocr.o(i.internal_alloc) refers to mvars.o(.data) for __microlib_freelist
    mallocr.o(i.realloc) refers to mallocr.o(i.__free$realloc) for __free$realloc
    mallocr.o(i.realloc) refers to mallocr.o(i.internal_alloc) for internal_alloc
    mallocr.o(i.realloc) refers to mallocr.o(i.__malloc$realloc) for __malloc$realloc
    mallocr.o(i.realloc) refers to mvars.o(.data) for __microlib_freelist
    malloca.o(i.__aligned_malloc) refers to mvars.o(.data) for __microlib_freelist
    malloca.o(i.__aligned_malloc) refers to mvars.o(.data) for __microlib_freelist_initialised
    malloca.o(i.__aligned_malloc) refers to boot_vectors.o(HEAP) for __heap_base
    malloca.o(i.__free$memalign) refers to mvars.o(.data) for __microlib_freelist
    malloca.o(i.__malloc$memalign) refers to malloca.o(i.__aligned_malloc) for __aligned_malloc
    mallocra.o(i.__aligned_malloc$realloc) refers to mallocra.o(i.internal_alloc) for internal_alloc
    mallocra.o(i.__aligned_malloc$realloc) refers to boot_vectors.o(HEAP) for __heap_base
    mallocra.o(i.__aligned_malloc$realloc) refers to mvars.o(.data) for __microlib_freelist
    mallocra.o(i.__aligned_malloc$realloc) refers to mvars.o(.data) for __microlib_freelist_initialised
    mallocra.o(i.__free$realloc$memalign) refers to mvars.o(.data) for __microlib_freelist
    mallocra.o(i.__malloc$realloc$memalign) refers to mallocra.o(i.__aligned_malloc$realloc) for __aligned_malloc$realloc
    mallocra.o(i.__realloc$memalign) refers to mallocra.o(i.__free$realloc$memalign) for __free$realloc$memalign
    mallocra.o(i.__realloc$memalign) refers to mallocra.o(i.internal_alloc) for internal_alloc
    mallocra.o(i.__realloc$memalign) refers to mallocra.o(i.__malloc$realloc$memalign) for __malloc$realloc$memalign
    mallocra.o(i.__realloc$memalign) refers to mvars.o(.data) for __microlib_freelist
    mallocra.o(i.internal_alloc) refers to mvars.o(.data) for __microlib_freelist
    entry2.o(.ARM.Collect$$$$00000001) refers to entry2.o(.ARM.Collect$$$$00002712) for __lit__00000000
    entry2.o(.ARM.Collect$$$$00002712) refers to boot_vectors.o(STACK) for __initial_sp
    entry2.o(__vectab_stack_and_reset_area) refers to boot_vectors.o(STACK) for __initial_sp
    entry2.o(__vectab_stack_and_reset_area) refers to entry.o(.ARM.Collect$$$$00000000) for __main
    entry5.o(.ARM.Collect$$$$00000004) refers to init.o(.text) for __scatterload
    init.o(.text) refers to entry5.o(.ARM.Collect$$$$00000004) for __main_after_scatterload
    pwm.o(i.set_tmr_enable) refers to pwm.o(.ARM.__AT_0x50000004) for .ARM.__AT_0x50000004
    pwm.o(i.set_tmr_div) refers to pwm.o(.ARM.__AT_0x50000004) for .ARM.__AT_0x50000004
    pwm.o(i.timer0_start) refers to pwm.o(.ARM.__AT_0x50003400) for .ARM.__AT_0x50003400
    pwm.o(i.timer0_stop) refers to pwm.o(.ARM.__AT_0x50003400) for .ARM.__AT_0x50003400
    pwm.o(i.timer0_release) refers to pwm.o(.ARM.__AT_0x50003400) for .ARM.__AT_0x50003400
    pwm.o(i.timer0_register_callback) refers to pwm.o(.bss) for .bss
    pwm.o(i.timer2_enable) refers to pwm.o(.ARM.__AT_0x50003410) for .ARM.__AT_0x50003410
    pwm.o(i.timer2_set_hw_pause) refers to pwm.o(.ARM.__AT_0x50003410) for .ARM.__AT_0x50003410
    pwm.o(i.timer2_set_sw_pause) refers to pwm.o(.ARM.__AT_0x50003410) for .ARM.__AT_0x50003410
    pwm.o(i.timer2_stop) refers to pwm.o(.ARM.__AT_0x50003410) for .ARM.__AT_0x50003410


==============================================================================

Removing Unused input sections from the image.

    Removing arch_main.o(.bss), (1 bytes).
    Removing arch_main.o(.constdata), (28 bytes).
    Removing arch_sleep.o(.text), (32 bytes).
    Removing arch_sleep.o(.text), (80 bytes).
    Removing arch_sleep.o(.text), (36 bytes).
    Removing arch_sleep.o(.text), (12 bytes).
    Removing arch_sleep.o(.text), (12 bytes).
    Removing arch_sleep.o(.text), (12 bytes).
    Removing arch_system.o(.text), (2 bytes).
    Removing arch_system.o(.text), (2 bytes).
    Removing arch_system.o(.text), (2 bytes).
    Removing arch_system.o(.text), (10 bytes).
    Removing arch_system.o(.text), (10 bytes).
    Removing arch_system.o(.text), (14 bytes).
    Removing arch_system.o(.text), (96 bytes).
    Removing arch_system.o(.text), (2 bytes).
    Removing arch_system.o(.text), (88 bytes).
    Removing arch_system.o(.constdata), (28 bytes).
    Removing arch_patch.o(retention_mem_area0), (32 bytes).
    Removing atts_util.obj(.text), (32 bytes).
    Removing atts_util.obj(.text), (36 bytes).
    Removing ke_mem.obj(.text), (508 bytes).
    Removing ke_mem.obj(.data), (1 bytes).
    Removing syscntl.o(.text), (24 bytes).
    Removing gpio.o(.text), (48 bytes).
    Removing gpio.o(.text), (144 bytes).
    Removing gpio.o(.text), (36 bytes).
    Removing wkupct_quadec.o(.text), (36 bytes).
    Removing wkupct_quadec.o(.text), (156 bytes).
    Removing wkupct_quadec.o(.text), (40 bytes).
    Removing wkupct_quadec.o(.text), (12 bytes).
    Removing wkupct_quadec.o(.text), (12 bytes).
    Removing wkupct_quadec.o(.text), (40 bytes).
    Removing wkupct_quadec.o(.text), (44 bytes).
    Removing wkupct_quadec.o(.text), (32 bytes).
    Removing wkupct_quadec.o(.text), (92 bytes).
    Removing battery.o(.text), (36 bytes).
    Removing battery.o(.text), (72 bytes).
    Removing battery.o(retention_mem_area0), (8 bytes).
    Removing spi_flash.o(.text), (60 bytes).
    Removing spi_flash.o(.text), (84 bytes).
    Removing spi_flash.o(.text), (64 bytes).
    Removing spi_flash.o(.text), (68 bytes).
    Removing spi_flash.o(.text), (32 bytes).
    Removing spi_flash.o(.text), (36 bytes).
    Removing spi_flash.o(.text), (66 bytes).
    Removing spi_flash.o(.text), (24 bytes).
    Removing spi_flash.o(.text), (18 bytes).
    Removing spi_flash.o(.text), (56 bytes).
    Removing spi_flash.o(.text), (32 bytes).
    Removing spi_flash.o(.text), (96 bytes).
    Removing spi_flash.o(.text), (116 bytes).
    Removing spi_flash.o(.text), (42 bytes).
    Removing spi_flash.o(.constdata), (80 bytes).
    Removing spi.o(.text), (12 bytes).
    Removing spi.o(.text), (12 bytes).
    Removing spi.o(.text), (16 bytes).
    Removing uart2.o(.text), (24 bytes).
    Removing uart2.o(.text), (12 bytes).
    Removing uart2.o(.text), (76 bytes).
    Removing uart2.o(.text), (32 bytes).
    Removing pwm.o(.text), (16 bytes).
    Removing pwm.o(.text), (16 bytes).
    Removing pwm.o(.text), (60 bytes).
    Removing rf_580.o(.text), (24 bytes).
    Removing rf_580.o(.text), (28 bytes).
    Removing rwble.o(.bss), (1 bytes).
    Removing rwble.o(.bss), (4 bytes).
    Removing rwip.o(retention_mem_area0), (4 bytes).
    Removing rwip.o(retention_mem_area0), (4 bytes).
    Removing attm_db_128.o(.text), (288 bytes).
    Removing prf_utils.o(.text), (34 bytes).
    Removing prf_utils.o(.text), (34 bytes).
    Removing custs1_task.o(.bss), (1 bytes).
    Removing custom_common.o(.text), (44 bytes).
    Removing custom_common.o(.text), (72 bytes).
    Removing spotar.o(.text), (48 bytes).
    Removing spotar.o(.constdata), (29 bytes).
    Removing spotar.o(.constdata), (39 bytes).
    Removing spotar.o(.constdata), (48 bytes).
    Removing spotar.o(.constdata), (21 bytes).
    Removing spotar.o(.constdata), (23 bytes).
    Removing spotar.o(.constdata), (26 bytes).
    Removing app_default_handlers.o(.text), (8 bytes).
    Removing app_default_handlers.o(.text), (8 bytes).
    Removing app_default_handlers.o(.text), (8 bytes).
    Removing app_default_handlers.o(.text), (36 bytes).
    Removing app_default_handlers.o(.text), (8 bytes).
    Removing app_default_handlers.o(.text), (26 bytes).
    Removing app_default_handlers.o(.text), (76 bytes).
    Removing app_default_handlers.o(.constdata), (6 bytes).
    Removing app_default_handlers.o(.constdata), (4 bytes).
    Removing app.o(.text), (164 bytes).
    Removing app.o(.text), (80 bytes).
    Removing app.o(.text), (84 bytes).
    Removing app.o(.text), (28 bytes).
    Removing app.o(.text), (28 bytes).
    Removing app.o(.text), (64 bytes).
    Removing app.o(.text), (8 bytes).
    Removing app.o(.text), (32 bytes).
    Removing app.o(.text), (8 bytes).
    Removing app.o(.text), (48 bytes).
    Removing app.o(.text), (48 bytes).
    Removing app.o(.text), (28 bytes).
    Removing app.o(.text), (8 bytes).
    Removing app.o(.text), (28 bytes).
    Removing app.o(.text), (8 bytes).
    Removing app.o(.text), (40 bytes).
    Removing app.o(.text), (24 bytes).
    Removing app.o(.text), (8 bytes).
    Removing app.o(.text), (48 bytes).
    Removing app.o(.constdata), (12 bytes).
    Removing app.o(.constdata), (76 bytes).
    Removing app.o(retention_mem_area0), (6 bytes).
    Removing app_task.o(.constdata), (48 bytes).
    Removing app_security.o(.text), (28 bytes).
    Removing app_security.o(.text), (100 bytes).
    Removing app_security.o(.text), (36 bytes).
    Removing app_security.o(retention_mem_area0), (76 bytes).
    Removing app_spotar.o(.text), (48 bytes).
    Removing app_spotar.o(.constdata), (24 bytes).
    Removing app_msg_utils.o(.text), (24 bytes).
    Removing app_easy_msg_utils.o(.text), (24 bytes).
    Removing app_easy_msg_utils.o(.text), (44 bytes).
    Removing app_easy_msg_utils.o(.text), (32 bytes).
    Removing app_easy_msg_utils.o(.text), (36 bytes).
    Removing app_easy_msg_utils.o(.text), (20 bytes).
    Removing app_easy_msg_utils.o(.text), (40 bytes).
    Removing app_easy_msg_utils.o(.text), (32 bytes).
    Removing app_easy_msg_utils.o(.text), (20 bytes).
    Removing app_easy_msg_utils.o(.text), (24 bytes).
    Removing app_easy_msg_utils.o(.text), (32 bytes).
    Removing app_easy_msg_utils.o(retention_mem_area0), (24 bytes).
    Removing app_easy_timer.o(.text), (140 bytes).
    Removing app_easy_timer.o(.text), (44 bytes).
    Removing app_easy_security.o(.text), (68 bytes).
    Removing app_easy_security.o(.text), (76 bytes).
    Removing app_easy_security.o(.text), (48 bytes).
    Removing app_easy_security.o(.text), (84 bytes).
    Removing app_easy_security.o(.text), (80 bytes).
    Removing app_easy_security.o(.text), (88 bytes).
    Removing app_easy_security.o(.text), (8 bytes).
    Removing app_easy_security.o(.text), (28 bytes).
    Removing app_easy_security.o(.text), (60 bytes).
    Removing app_easy_security.o(.text), (46 bytes).
    Removing app_easy_security.o(.text), (48 bytes).
    Removing app_easy_security.o(.text), (40 bytes).
    Removing app_easy_security.o(.text), (56 bytes).
    Removing app_easy_security.o(.text), (76 bytes).
    Removing app_easy_security.o(.text), (44 bytes).
    Removing app_easy_security.o(.text), (48 bytes).
    Removing app_easy_security.o(.text), (28 bytes).
    Removing app_easy_security.o(.text), (48 bytes).
    Removing app_easy_security.o(.constdata), (7 bytes).
    Removing app_easy_security.o(retention_mem_area0), (24 bytes).
    Removing app_customs.o(.text), (2 bytes).
    Removing app_customs_common.o(.text), (4 bytes).
    Removing user_profile.o(.constdata), (12 bytes).
    Removing fk_oled.o(.text), (82 bytes).
    Removing fk_oled.o(.text), (176 bytes).
    Removing fk_oled.o(.bss), (1 bytes).
    Removing my_timer.o(.bss), (1 bytes).
    Removing my_timer.o(.bss), (4 bytes).
    Removing my_timer.o(.bss), (1 bytes).
    Removing my_timer.o(.data), (1 bytes).
    Removing lis2ds12_acc_driver.o(.text), (94 bytes).
    Removing lis2ds12_acc_driver.o(.text), (28 bytes).
    Removing lis2ds12_acc_driver.o(.text), (50 bytes).
    Removing lis2ds12_acc_driver.o(.text), (32 bytes).
    Removing lis2ds12_acc_driver.o(.text), (50 bytes).
    Removing lis2ds12_acc_driver.o(.text), (32 bytes).
    Removing lis2ds12_acc_driver.o(.text), (50 bytes).
    Removing lis2ds12_acc_driver.o(.text), (32 bytes).
    Removing lis2ds12_acc_driver.o(.text), (32 bytes).
    Removing lis2ds12_acc_driver.o(.text), (50 bytes).
    Removing lis2ds12_acc_driver.o(.text), (32 bytes).
    Removing lis2ds12_acc_driver.o(.text), (50 bytes).
    Removing lis2ds12_acc_driver.o(.text), (32 bytes).
    Removing lis2ds12_acc_driver.o(.text), (50 bytes).
    Removing lis2ds12_acc_driver.o(.text), (32 bytes).
    Removing lis2ds12_acc_driver.o(.text), (50 bytes).
    Removing lis2ds12_acc_driver.o(.text), (32 bytes).
    Removing lis2ds12_acc_driver.o(.text), (32 bytes).
    Removing lis2ds12_acc_driver.o(.text), (50 bytes).
    Removing lis2ds12_acc_driver.o(.text), (32 bytes).
    Removing lis2ds12_acc_driver.o(.text), (50 bytes).
    Removing lis2ds12_acc_driver.o(.text), (32 bytes).
    Removing lis2ds12_acc_driver.o(.text), (50 bytes).
    Removing lis2ds12_acc_driver.o(.text), (32 bytes).
    Removing lis2ds12_acc_driver.o(.text), (32 bytes).
    Removing lis2ds12_acc_driver.o(.text), (50 bytes).
    Removing lis2ds12_acc_driver.o(.text), (32 bytes).
    Removing lis2ds12_acc_driver.o(.text), (50 bytes).
    Removing lis2ds12_acc_driver.o(.text), (32 bytes).
    Removing lis2ds12_acc_driver.o(.text), (50 bytes).
    Removing lis2ds12_acc_driver.o(.text), (32 bytes).
    Removing lis2ds12_acc_driver.o(.text), (50 bytes).
    Removing lis2ds12_acc_driver.o(.text), (32 bytes).
    Removing lis2ds12_acc_driver.o(.text), (50 bytes).
    Removing lis2ds12_acc_driver.o(.text), (32 bytes).
    Removing lis2ds12_acc_driver.o(.text), (50 bytes).
    Removing lis2ds12_acc_driver.o(.text), (32 bytes).
    Removing lis2ds12_acc_driver.o(.text), (50 bytes).
    Removing lis2ds12_acc_driver.o(.text), (32 bytes).
    Removing lis2ds12_acc_driver.o(.text), (50 bytes).
    Removing lis2ds12_acc_driver.o(.text), (32 bytes).
    Removing lis2ds12_acc_driver.o(.text), (50 bytes).
    Removing lis2ds12_acc_driver.o(.text), (32 bytes).
    Removing lis2ds12_acc_driver.o(.text), (50 bytes).
    Removing lis2ds12_acc_driver.o(.text), (32 bytes).
    Removing lis2ds12_acc_driver.o(.text), (50 bytes).
    Removing lis2ds12_acc_driver.o(.text), (32 bytes).
    Removing lis2ds12_acc_driver.o(.text), (50 bytes).
    Removing lis2ds12_acc_driver.o(.text), (32 bytes).
    Removing lis2ds12_acc_driver.o(.text), (50 bytes).
    Removing lis2ds12_acc_driver.o(.text), (32 bytes).
    Removing lis2ds12_acc_driver.o(.text), (50 bytes).
    Removing lis2ds12_acc_driver.o(.text), (32 bytes).
    Removing lis2ds12_acc_driver.o(.text), (32 bytes).
    Removing lis2ds12_acc_driver.o(.text), (50 bytes).
    Removing lis2ds12_acc_driver.o(.text), (32 bytes).
    Removing lis2ds12_acc_driver.o(.text), (50 bytes).
    Removing lis2ds12_acc_driver.o(.text), (32 bytes).
    Removing lis2ds12_acc_driver.o(.text), (50 bytes).
    Removing lis2ds12_acc_driver.o(.text), (32 bytes).
    Removing lis2ds12_acc_driver.o(.text), (50 bytes).
    Removing lis2ds12_acc_driver.o(.text), (32 bytes).
    Removing lis2ds12_acc_driver.o(.text), (50 bytes).
    Removing lis2ds12_acc_driver.o(.text), (32 bytes).
    Removing lis2ds12_acc_driver.o(.text), (50 bytes).
    Removing lis2ds12_acc_driver.o(.text), (32 bytes).
    Removing lis2ds12_acc_driver.o(.text), (50 bytes).
    Removing lis2ds12_acc_driver.o(.text), (32 bytes).
    Removing lis2ds12_acc_driver.o(.text), (50 bytes).
    Removing lis2ds12_acc_driver.o(.text), (32 bytes).
    Removing lis2ds12_acc_driver.o(.text), (28 bytes).
    Removing lis2ds12_acc_driver.o(.text), (32 bytes).
    Removing lis2ds12_acc_driver.o(.text), (32 bytes).
    Removing lis2ds12_acc_driver.o(.text), (32 bytes).
    Removing lis2ds12_acc_driver.o(.text), (32 bytes).
    Removing lis2ds12_acc_driver.o(.text), (32 bytes).
    Removing lis2ds12_acc_driver.o(.text), (32 bytes).
    Removing lis2ds12_acc_driver.o(.text), (32 bytes).
    Removing lis2ds12_acc_driver.o(.text), (32 bytes).
    Removing lis2ds12_acc_driver.o(.text), (44 bytes).
    Removing lis2ds12_acc_driver.o(.text), (28 bytes).
    Removing lis2ds12_acc_driver.o(.text), (32 bytes).
    Removing lis2ds12_acc_driver.o(.text), (28 bytes).
    Removing lis2ds12_acc_driver.o(.text), (74 bytes).
    Removing lis2ds12_acc_driver.o(.text), (52 bytes).
    Removing lis2ds12_acc_driver.o(.text), (32 bytes).
    Removing lis2ds12_acc_driver.o(.text), (50 bytes).
    Removing lis2ds12_acc_driver.o(.text), (32 bytes).
    Removing lis2ds12_acc_driver.o(.text), (50 bytes).
    Removing lis2ds12_acc_driver.o(.text), (32 bytes).
    Removing lis2ds12_acc_driver.o(.text), (52 bytes).
    Removing lis2ds12_acc_driver.o(.text), (32 bytes).
    Removing lis2ds12_acc_driver.o(.text), (56 bytes).
    Removing lis2ds12_acc_driver.o(.text), (34 bytes).
    Removing lis2ds12_acc_driver.o(.text), (56 bytes).
    Removing lis2ds12_acc_driver.o(.text), (30 bytes).
    Removing lis2ds12_acc_driver.o(.text), (52 bytes).
    Removing lis2ds12_acc_driver.o(.text), (32 bytes).
    Removing lis2ds12_acc_driver.o(.text), (50 bytes).
    Removing lis2ds12_acc_driver.o(.text), (32 bytes).
    Removing lis2ds12_acc_driver.o(.text), (50 bytes).
    Removing lis2ds12_acc_driver.o(.text), (32 bytes).
    Removing lis2ds12_acc_driver.o(.text), (52 bytes).
    Removing lis2ds12_acc_driver.o(.text), (32 bytes).
    Removing lis2ds12_acc_driver.o(.text), (50 bytes).
    Removing lis2ds12_acc_driver.o(.text), (32 bytes).
    Removing lis2ds12_acc_driver.o(.text), (56 bytes).
    Removing lis2ds12_acc_driver.o(.text), (34 bytes).
    Removing lis2ds12_acc_driver.o(.text), (52 bytes).
    Removing lis2ds12_acc_driver.o(.text), (32 bytes).
    Removing lis2ds12_acc_driver.o(.text), (112 bytes).
    Removing lis2ds12_acc_driver.o(.text), (70 bytes).
    Removing lis2ds12_acc_driver.o(.text), (32 bytes).
    Removing lis2ds12_acc_driver.o(.text), (32 bytes).
    Removing lis2ds12_acc_driver.o(.text), (32 bytes).
    Removing lis2ds12_acc_driver.o(.text), (32 bytes).
    Removing lis2ds12_acc_driver.o(.text), (32 bytes).
    Removing lis2ds12_acc_driver.o(.text), (32 bytes).
    Removing lis2ds12_acc_driver.o(.text), (32 bytes).
    Removing lis2ds12_acc_driver.o(.text), (32 bytes).
    Removing lis2ds12_acc_driver.o(.text), (32 bytes).
    Removing lis2ds12_acc_driver.o(.text), (32 bytes).
    Removing lis2ds12_acc_driver.o(.text), (32 bytes).
    Removing lis2ds12_acc_driver.o(.text), (32 bytes).
    Removing lis2ds12_acc_driver.o(.text), (32 bytes).
    Removing lis2ds12_acc_driver.o(.text), (32 bytes).
    Removing lis2ds12_acc_driver.o(.text), (32 bytes).
    Removing lis2ds12_acc_driver.o(.text), (32 bytes).
    Removing lis2ds12_acc_driver.o(.text), (32 bytes).
    Removing lis2ds12_acc_driver.o(.text), (32 bytes).
    Removing lis2ds12_acc_driver.o(.text), (32 bytes).
    Removing lis2ds12_acc_driver.o(.text), (32 bytes).
    Removing lis2ds12_acc_driver.o(.text), (32 bytes).
    Removing lis2ds12_acc_driver.o(.text), (32 bytes).
    Removing lis2ds12_acc_driver.o(.text), (32 bytes).
    Removing lis2ds12_acc_driver.o(.text), (32 bytes).
    Removing lis2ds12_acc_driver.o(.text), (32 bytes).
    Removing lis2ds12_acc_driver.o(.text), (32 bytes).
    Removing lis2ds12_acc_driver.o(.text), (32 bytes).
    Removing lis2ds12_acc_driver.o(.text), (32 bytes).
    Removing lis2ds12_acc_driver.o(.text), (52 bytes).
    Removing lis2ds12_acc_driver.o(.text), (32 bytes).
    Removing lis2ds12_acc_driver.o(.text), (50 bytes).
    Removing lis2ds12_acc_driver.o(.text), (32 bytes).
    Removing lis2ds12_acc_driver.o(.text), (32 bytes).
    Removing lis2ds12_acc_driver.o(.text), (32 bytes).
    Removing lis2ds12_acc_driver.o(.text), (32 bytes).
    Removing lis2ds12_acc_driver.o(.text), (32 bytes).
    Removing lis2ds12_acc_driver.o(.text), (32 bytes).
    Removing lis2ds12_acc_driver.o(.text), (32 bytes).
    Removing lis2ds12_acc_driver.o(.text), (32 bytes).
    Removing lis2ds12_acc_driver.o(.text), (32 bytes).
    Removing lis2ds12_acc_driver.o(.text), (32 bytes).
    Removing lis2ds12_acc_driver.o(.text), (32 bytes).
    Removing lis2ds12_acc_driver.o(.text), (32 bytes).
    Removing lis2ds12_acc_driver.o(.text), (50 bytes).
    Removing lis2ds12_acc_driver.o(.text), (32 bytes).
    Removing lis2ds12_acc_driver.o(.text), (50 bytes).
    Removing lis2ds12_acc_driver.o(.text), (32 bytes).
    Removing lis2ds12_acc_driver.o(.text), (50 bytes).
    Removing lis2ds12_acc_driver.o(.text), (32 bytes).
    Removing lis2ds12_acc_driver.o(.text), (50 bytes).
    Removing lis2ds12_acc_driver.o(.text), (32 bytes).
    Removing lis2ds12_acc_driver.o(.text), (50 bytes).
    Removing lis2ds12_acc_driver.o(.text), (32 bytes).
    Removing lis2ds12_acc_driver.o(.text), (68 bytes).
    Removing lis2ds12_acc_driver.o(.text), (60 bytes).
    Removing lis2ds12_acc_driver.o(.text), (204 bytes).
    Removing lis2ds12_acc_driver.o(.constdata), (96 bytes).
    Removing my_adc.o(.bss), (4 bytes).
    Removing atts_task.obj(i.__ARM_common_switch8), (26 bytes).
    Removing wkupct_quadec.o(i.quad_decoder_get_z_counter), (12 bytes).
    Removing wkupct_quadec.o(i.quad_decoder_get_y_counter), (12 bytes).
    Removing wkupct_quadec.o(i.quad_decoder_get_x_counter), (12 bytes).
    Removing pwm.o(i.timer0_release), (16 bytes).
    Removing pwm.o(i.timer2_enable), (24 bytes).
    Removing pwm.o(i.timer2_set_hw_pause), (24 bytes).
    Removing pwm.o(i.timer2_set_sw_pause), (24 bytes).
    Removing pwm.o(i.timer2_set_pwm_frequency), (12 bytes).
    Removing pwm.o(i.timer2_stop), (16 bytes).
    Removing pwm.o(i.timer2_set_pwm2_duty_cycle), (12 bytes).
    Removing pwm.o(i.timer2_set_pwm3_duty_cycle), (12 bytes).
    Removing pwm.o(i.timer2_set_pwm4_duty_cycle), (12 bytes).

348 unused section(s) (total 14185 bytes) removed from the image.

==============================================================================

Adding Veneers to the image

    Adding TT veneer (12 bytes, Long) for call to 'memcmp' from nvds.o(.text).
    Adding TT veneer (12 bytes, Long) for call to '__aeabi_memcpy' from nvds.o(.text).
    Adding TT veneer (12 bytes, Long) for call to 'nvds_get_func' from nvds.o(.text).
    Adding TT veneer (12 bytes, Long) for call to '__aeabi_uidivmod' from arch_main.o(.text).
    Adding TT veneer (12 bytes, Long) for call to 'rwip_prevent_sleep_get' from arch_main.o(.text).
    Adding TT veneer (12 bytes, Long) for call to 'ke_event_get' from arch_main.o(.text).
    Adding TT veneer (12 bytes, Long) for call to 'rwip_schedule' from arch_main.o(.text).
    Adding TT veneer (12 bytes, Long) for call to 'lld_sleep_check' from arch_main.o(.text).
    Adding TT veneer (12 bytes, Long) for call to 'func_check_mem' from arch_main.o(.text).
    Adding TT veneer (12 bytes, Long) for call to 'test_rxdone' from arch_main.o(.text).
    Adding TT veneer (12 bytes, Long) for call to 'ke_mem_is_empty' from arch_main.o(.text).
    Adding TT veneer (12 bytes, Long) for call to 'rwip_wakeup_delay_set' from arch_system.o(.text).
    Adding TT veneer (12 bytes, Long) for call to '$Super$$get_rc16m_count_func' from arch_system.o(.text).
    Adding TT veneer (12 bytes, Long) for call to 'get_rc16m_count' from arch_system.o(.text).
    Adding TT veneer (12 bytes, Long) for call to 'pll_vcocal_LUT_InitUpdate' from arch_system.o(.text).
    Adding TT veneer (12 bytes, Long) for call to 'rf_calibration' from arch_system.o(.text).
    Adding TT veneer (12 bytes, Long) for call to 'lld_sleep_us_2_lpcycles_func' from arch_system.o(.text).
    Adding TT veneer (12 bytes, Long) for call to 'lld_sleep_lpcycles_2_us_func' from arch_system.o(.text).
    Adding TT veneer (12 bytes, Long) for call to 'uart_flow_on' from arch_system.o(.text).
    Adding TT veneer (12 bytes, Long) for call to 'srand' from arch_system.o(.text).
    Adding TT veneer (12 bytes, Long) for call to 'set_system_clocks' from arch_system.o(.text).
    Adding TT veneer (12 bytes, Long) for call to 'nvds_init' from arch_system.o(.text).
    Adding TT veneer (12 bytes, Long) for call to 'rwip_init' from arch_system.o(.text).
    Adding TT veneer (12 bytes, Long) for call to 'enable_rf_diag_irq' from arch_system.o(.text).
    Adding TT veneer (12 bytes, Long) for call to 'platform_reset_func' from arch_system.o(.text).
    Adding TT veneer (12 bytes, Long) for call to 'ke_handler_search' from arch_patch.o(.text).
    Adding TT veneer (12 bytes, Long) for call to 'ke_state_get' from arch_patch.o(.text).
    Adding TT veneer (12 bytes, Long) for call to 'TASK_LLM_lld_data_ind_handler' from arch_patch.o(.text).
    Adding TT veneer (12 bytes, Long) for call to 'co_buf_rx_free' from arch_patch.o(.text).
    Adding TT veneer (12 bytes, Long) for call to 'ke_malloc' from arch_patch.o(.text).
    Adding TT veneer (12 bytes, Long) for call to '__aeabi_memclr4' from arch_patch.o(.text).
    Adding TT veneer (12 bytes, Long) for call to 'ke_state_set' from arch_patch.o(.text).
    Adding TT veneer (12 bytes, Long) for call to 'ke_msg_alloc' from arch_patch.o(.text).
    Adding TT veneer (12 bytes, Long) for call to 'ke_msg_send' from arch_patch.o(.text).
    Adding TT veneer (12 bytes, Long) for call to '__ARM_common_switch8' from atts_task.obj(.text).
    Adding TT veneer (12 bytes, Long) for call to 'ke_timer_clear' from atts_task.obj(.text).
    Adding TT veneer (12 bytes, Long) for call to 'atts_send_cmd_cmp' from atts_task.obj(.text).
    Adding TT veneer (12 bytes, Long) for call to 'atts_mtu_exc_resp' from atts_task.obj(.text).
    Adding TT veneer (12 bytes, Long) for call to 'atts_find_info_resp' from atts_task.obj(.text).
    Adding TT veneer (12 bytes, Long) for call to 'atts_find_by_type_resp' from atts_task.obj(.text).
    Adding TT veneer (12 bytes, Long) for call to 'atts_read_by_type_resp' from atts_task.obj(.text).
    Adding TT veneer (12 bytes, Long) for call to 'atts_read_by_grp_type_resp' from atts_task.obj(.text).
    Adding TT veneer (12 bytes, Long) for call to 'atts_read_blob_resp' from atts_task.obj(.text).
    Adding TT veneer (12 bytes, Long) for call to 'atts_read_mult_resp' from atts_task.obj(.text).
    Adding TT veneer (12 bytes, Long) for call to 'atts_write_no_resp' from atts_task.obj(.text).
    Adding TT veneer (12 bytes, Long) for call to 'atts_write_resp' from atts_task.obj(.text).
    Adding TT veneer (12 bytes, Long) for call to 'atts_signed_write_resp' from atts_task.obj(.text).
    Adding TT veneer (12 bytes, Long) for call to 'atts_prepare_write_resp' from atts_task.obj(.text).
    Adding TT veneer (12 bytes, Long) for call to 'atts_execute_write_resp' from atts_task.obj(.text).
    Adding TT veneer (12 bytes, Long) for call to 'attmdb_get_attribute' from atts_util.obj(.text).
    Adding TT veneer (12 bytes, Long) for call to 'gattc_get_mtu' from atts_util.obj(.text).
    Adding TT veneer (12 bytes, Long) for call to 'atts_allocate_pdu' from atts_util.obj(.text).
    Adding TT veneer (12 bytes, Long) for call to 'atts_send_error' from atts_util.obj(.text).
    Adding TT veneer (12 bytes, Long) for call to 'atts_send_pdu' from atts_util.obj(.text).
    Adding TT veneer (12 bytes, Long) for call to 'atts_get_att_chk_perm' from atts_util.obj(.text).
    Adding TT veneer (12 bytes, Long) for call to 'attmdb_get_service' from atts_util.obj(.text).
    Adding TT veneer (12 bytes, Long) for call to '__aeabi_llsl' from atts_util.obj(.text).
    Adding TT veneer (12 bytes, Long) for call to 'lld_con_update_ind' from ch_map.obj(.text).
    Adding TT veneer (12 bytes, Long) for call to 'llc_util_dicon_procedure' from ch_map.obj(.text).
    Adding TT veneer (12 bytes, Long) for call to 'lld_ch_map_ind' from ch_map.obj(.text).
    Adding TT veneer (12 bytes, Long) for call to 'gapm_get_privacy_flag' from gapm_util.obj(.text).
    Adding TT veneer (12 bytes, Long) for call to 'gapm_set_recon_addr' from gapm_util.obj(.text).
    Adding TT veneer (12 bytes, Long) for call to 'co_list_pop_front' from ke_task.obj(.text).
    Adding TT veneer (12 bytes, Long) for call to 'ke_task_handler_get' from ke_task.obj(.text).
    Adding TT veneer (12 bytes, Long) for call to 'ke_msg_free' from ke_task.obj(.text).
    Adding TT veneer (12 bytes, Long) for call to 'co_list_push_back' from ke_task.obj(.text).
    Adding TT veneer (12 bytes, Long) for call to 'ke_event_clear' from ke_task.obj(.text).
    Adding TT veneer (12 bytes, Long) for call to 'ke_event_callback_set' from ke_task.obj(.text).
    Adding TT veneer (12 bytes, Long) for call to 'gapc_get_enc_keysize' from smpc.obj(.text).
    Adding TT veneer (12 bytes, Long) for call to 'gapc_get_role' from smpc.obj(.text).
    Adding TT veneer (12 bytes, Long) for call to 'smpc_generate_rand' from smpc_task.obj(.text).
    Adding TT veneer (12 bytes, Long) for call to 'smpc_tkdp_send_continue' from smpc_task.obj(.text).
    Adding TT veneer (12 bytes, Long) for call to 'smpc_pdu_send' from smpc_task.obj(.text).
    Adding TT veneer (12 bytes, Long) for call to 'smpc_tkdp_rcp_start' from smpc_task.obj(.text).
    Adding TT veneer (12 bytes, Long) for call to 'smpc_pairing_end' from smpc_task.obj(.text).
    Adding TT veneer (12 bytes, Long) for call to 'smpc_check_max_key_size' from smpc_task.obj(.text).
    Adding TT veneer (12 bytes, Long) for call to 'smpc_check_key_distrib' from smpc_task.obj(.text).
    Adding TT veneer (12 bytes, Long) for call to 'smpc_get_key_sec_prop' from smpc_task.obj(.text).
    Adding TT veneer (12 bytes, Long) for call to 'smpc_is_sec_mode_reached' from smpc_task.obj(.text).
    Adding TT veneer (12 bytes, Long) for call to 'rand' from llc.obj(.text).
    Adding TT veneer (12 bytes, Long) for call to 'llc_pdu_send' from llc.obj(.text).
    Adding TT veneer (12 bytes, Long) for call to 'llm_util_check_evt_mask' from llc.obj(.text).
    Adding TT veneer (12 bytes, Long) for call to 'llc_ltk_req_send' from llc.obj(.text).
    Adding TT veneer (12 bytes, Long) for call to 'llc_terminate_ind_pdu_send' from llc.obj(.text).
    Adding TT veneer (12 bytes, Long) for call to 'ke_timer_set' from llc.obj(.text).
    Adding TT veneer (12 bytes, Long) for call to 'llc_reject_ind_pdu_send' from llc.obj(.text).
    Adding TT veneer (12 bytes, Long) for call to 'llm_util_get_role' from llc.obj(.text).
    Adding TT veneer (12 bytes, Long) for call to 'llc_le_con_update_cmd_handler' from llc.obj(.text).
    Adding TT veneer (12 bytes, Long) for call to 'lld_evt_int_extract' from llc.obj(.text).
    Adding TT veneer (12 bytes, Long) for call to 'ke_free' from llc.obj(.text).
    Adding TT veneer (12 bytes, Long) for call to 'lld_stop_ind_handler' from llc.obj(.text).
    Adding TT veneer (12 bytes, Long) for call to 'llc_start_enc_rsp_pdu_send' from llc.obj(.text).
    Adding TT veneer (12 bytes, Long) for call to 'llc_common_enc_change_evt_send' from llc.obj(.text).
    Adding TT veneer (12 bytes, Long) for call to 'llc_llcp_rsp_to_ind_handler' from llc.obj(.text).
    Adding TT veneer (12 bytes, Long) for call to 'llc_link_sup_to_ind_handler' from llc.obj(.text).
    Adding TT veneer (12 bytes, Long) for call to 'gapc_send_error_evt' from gapc_task.obj(.text).
    Adding TT veneer (12 bytes, Long) for call to 'gapc_get_operation' from gapc_task.obj(.text).
    Adding TT veneer (12 bytes, Long) for call to 'gapc_send_complete_evt' from gapc_task.obj(.text).
    Adding TT veneer (12 bytes, Long) for call to 'gapc_send_disconect_ind' from gapc_task.obj(.text).
    Adding TT veneer (12 bytes, Long) for call to 'gapm_con_cleanup' from gapc_task.obj(.text).
    Adding TT veneer (12 bytes, Long) for call to 'llc_con_update_cmd_complete_send' from llc_con_update_ind.obj(.text).
    Adding TT veneer (12 bytes, Long) for call to '__aeabi_idivmod' from battery.o(.text).
    Adding TT veneer (12 bytes, Long) for call to 'IffCalibration' from trng.o(.text).
    Adding TT veneer (12 bytes, Long) for call to 'DCoffsetCalibration' from trng.o(.text).
    Adding TT veneer (12 bytes, Long) for call to '__aeabi_memclr' from uart2.o(.text).
    Adding TT veneer (12 bytes, Long) for call to 'ble_regs_pop' from rwble.o(.text).
    Adding TT veneer (12 bytes, Long) for call to 'rwip_wakeup' from rwble.o(.text).
    Adding TT veneer (12 bytes, Long) for call to 'rf_workaround_init' from rwble.o(.text).
    Adding TT veneer (12 bytes, Long) for call to 'rf_reinit' from rwble.o(.text).
    Adding TT veneer (12 bytes, Long) for call to 'lld_evt_start_isr' from rwble.o(.text).
    Adding TT veneer (12 bytes, Long) for call to '$Super$$BLE_CSCNT_Handler' from rwble.o(.text).
    Adding TT veneer (12 bytes, Long) for call to 'lld_evt_rx_isr' from rwble.o(.text).
    Adding TT veneer (12 bytes, Long) for call to 'lld_evt_end_isr' from rwble.o(.text).
    Adding TT veneer (12 bytes, Long) for call to 'set_rf_cal_cap' from rwble.o(.text).
    Adding TT veneer (12 bytes, Long) for call to 'set_gauss_modgain' from rwble.o(.text).
    Adding TT veneer (12 bytes, Long) for call to 'ke_sleep_check' from rwip.o(.text).
    Adding TT veneer (12 bytes, Long) for call to 'ke_timer_sleep_check' from rwip.o(.text).
    Adding TT veneer (12 bytes, Long) for call to 'lld_sleep_enter' from rwip.o(.text).
    Adding TT veneer (12 bytes, Long) for call to 'ble_regs_push' from rwip.o(.text).
    Adding TT veneer (12 bytes, Long) for call to 'ke_task_create' from diss.o(.text).
    Adding TT veneer (12 bytes, Long) for call to 'attmdb_svc_set_permission' from diss.o(.text).
    Adding TT veneer (12 bytes, Long) for call to 'attm_svc_create_db' from diss_task.o(.text).
    Adding TT veneer (12 bytes, Long) for call to 'attmdb_att_set_value' from diss_task.o(.text).
    Adding TT veneer (12 bytes, Long) for call to 'gapc_get_conidx' from diss_task.o(.text).
    Adding TT veneer (12 bytes, Long) for call to 'gapc_get_conhdl' from prf_utils.o(.text).
    Adding TT veneer (12 bytes, Long) for call to 'attmdb_att_partial_value_update' from prf_utils.o(.text).
    Adding TT veneer (12 bytes, Long) for call to 'attmdb_att_set_permission' from prf_utils.o(.text).
    Adding TT veneer (12 bytes, Long) for call to 'strlen' from custs1_task.o(.text).
    Adding TT veneer (12 bytes, Long) for call to 'atts_write_rsp_send' from custs1_task.o(.text).
    Adding TT veneer (12 bytes, Long) for call to 'attmdb_att_get_value' from custs1_task.o(.text).
    Adding TT veneer (12 bytes, Long) for call to 'attmdb_att_get_uuid' from custom_common.o(.text).
    Adding TT veneer (12 bytes, Long) for call to 'attmdb_add_service' from spotar_task.o(.text).
    Adding TT veneer (12 bytes, Long) for call to 'attmdb_add_attribute' from spotar_task.o(.text).
    Adding TT veneer (12 bytes, Long) for call to 'nvds_get' from app.o(.text).
    Adding TT veneer (12 bytes, Long) for call to 'get_patching_spota_length' from app_spotar.o(.text).
    Adding TT veneer (12 bytes, Long) for call to '__aeabi_memset' from app_spotar.o(.text).
    Adding TT veneer (12 bytes, Long) for call to 'platform_reset' from user_profile.o(.text).

137 Veneer(s) (total 1644 bytes) added to the image.

==============================================================================

Image Symbol Table

    Local Symbols

    Symbol Name                              Value     Ov Type        Size  Object(Section)

    ../clib/microlib/division.c              0x00000000   Number         0  uldiv.o ABSOLUTE
    ../clib/microlib/division.c              0x00000000   Number         0  ldiv.o ABSOLUTE
    ../clib/microlib/init/entry.s            0x00000000   Number         0  entry8b.o ABSOLUTE
    ../clib/microlib/init/entry.s            0x00000000   Number         0  entry10b.o ABSOLUTE
    ../clib/microlib/init/entry.s            0x00000000   Number         0  entry10a.o ABSOLUTE
    ../clib/microlib/init/entry.s            0x00000000   Number         0  entry9b.o ABSOLUTE
    ../clib/microlib/init/entry.s            0x00000000   Number         0  entry9a.o ABSOLUTE
    ../clib/microlib/init/entry.s            0x00000000   Number         0  entry2.o ABSOLUTE
    ../clib/microlib/init/entry.s            0x00000000   Number         0  entry7b.o ABSOLUTE
    ../clib/microlib/init/entry.s            0x00000000   Number         0  entry.o ABSOLUTE
    ../clib/microlib/init/entry.s            0x00000000   Number         0  entry7a.o ABSOLUTE
    ../clib/microlib/init/entry.s            0x00000000   Number         0  entry5.o ABSOLUTE
    ../clib/microlib/init/entry.s            0x00000000   Number         0  entry11b.o ABSOLUTE
    ../clib/microlib/init/entry.s            0x00000000   Number         0  entry11a.o ABSOLUTE
    ../clib/microlib/init/entry.s            0x00000000   Number         0  entry8a.o ABSOLUTE
    ../clib/microlib/longlong.c              0x00000000   Number         0  llmul.o ABSOLUTE
    ../clib/microlib/malloc/malloc.c         0x00000000   Number         0  mallocr.o ABSOLUTE
    ../clib/microlib/malloc/malloc.c         0x00000000   Number         0  mallocra.o ABSOLUTE
    ../clib/microlib/malloc/malloc.c         0x00000000   Number         0  malloca.o ABSOLUTE
    ../clib/microlib/malloc/malloc.c         0x00000000   Number         0  malloc.o ABSOLUTE
    ../clib/microlib/malloc/mvars.c          0x00000000   Number         0  mvars.o ABSOLUTE
    ..\..\..\..\..\..\..\..\clean\kbd_ref\dk_apps\patch_code\src\ch_map.c 0x00000000   Number         0  ch_map.obj ABSOLUTE
    ..\..\..\..\..\..\..\..\clean\kbd_ref\dk_apps\patch_code\src\gapm_util.c 0x00000000   Number         0  gapm_util.obj ABSOLUTE
    ..\..\..\..\..\sdk\app_modules\src\app_bass\app_bass.c 0x00000000   Number         0  app_bass.o ABSOLUTE
    ..\..\..\..\..\sdk\app_modules\src\app_bass\app_bass_task.c 0x00000000   Number         0  app_bass_task.o ABSOLUTE
    ..\..\..\..\..\sdk\app_modules\src\app_common\app.c 0x00000000   Number         0  app.o ABSOLUTE
    ..\..\..\..\..\sdk\app_modules\src\app_common\app_msg_utils.c 0x00000000   Number         0  app_msg_utils.o ABSOLUTE
    ..\..\..\..\..\sdk\app_modules\src\app_common\app_task.c 0x00000000   Number         0  app_task.o ABSOLUTE
    ..\..\..\..\..\sdk\app_modules\src\app_custs\app_customs.c 0x00000000   Number         0  app_customs.o ABSOLUTE
    ..\..\..\..\..\sdk\app_modules\src\app_custs\app_customs_common.c 0x00000000   Number         0  app_customs_common.o ABSOLUTE
    ..\..\..\..\..\sdk\app_modules\src\app_custs\app_customs_task.c 0x00000000   Number         0  app_customs_task.o ABSOLUTE
    ..\..\..\..\..\sdk\app_modules\src\app_default_hnd\app_default_handlers.c 0x00000000   Number         0  app_default_handlers.o ABSOLUTE
    ..\..\..\..\..\sdk\app_modules\src\app_diss\app_diss.c 0x00000000   Number         0  app_diss.o ABSOLUTE
    ..\..\..\..\..\sdk\app_modules\src\app_diss\app_diss_task.c 0x00000000   Number         0  app_diss_task.o ABSOLUTE
    ..\..\..\..\..\sdk\app_modules\src\app_easy\app_easy_msg_utils.c 0x00000000   Number         0  app_easy_msg_utils.o ABSOLUTE
    ..\..\..\..\..\sdk\app_modules\src\app_easy\app_easy_security.c 0x00000000   Number         0  app_easy_security.o ABSOLUTE
    ..\..\..\..\..\sdk\app_modules\src\app_easy\app_easy_timer.c 0x00000000   Number         0  app_easy_timer.o ABSOLUTE
    ..\..\..\..\..\sdk\app_modules\src\app_entry\app_entry_point.c 0x00000000   Number         0  app_entry_point.o ABSOLUTE
    ..\..\..\..\..\sdk\app_modules\src\app_proxr\app_proxr.c 0x00000000   Number         0  app_proxr.o ABSOLUTE
    ..\..\..\..\..\sdk\app_modules\src\app_proxr\app_proxr_task.c 0x00000000   Number         0  app_proxr_task.o ABSOLUTE
    ..\..\..\..\..\sdk\app_modules\src\app_sec\app_security.c 0x00000000   Number         0  app_security.o ABSOLUTE
    ..\..\..\..\..\sdk\app_modules\src\app_sec\app_security_task.c 0x00000000   Number         0  app_security_task.o ABSOLUTE
    ..\..\..\..\..\sdk\app_modules\src\app_spotar\app_spotar.c 0x00000000   Number         0  app_spotar.o ABSOLUTE
    ..\..\..\..\..\sdk\app_modules\src\app_spotar\app_spotar_task.c 0x00000000   Number         0  app_spotar_task.o ABSOLUTE
    ..\..\..\..\..\sdk\ble_stack\host\att\attm\attm_db_128.c 0x00000000   Number         0  attm_db_128.o ABSOLUTE
    ..\..\..\..\..\sdk\ble_stack\host\gap\gapm\gapm.c 0x00000000   Number         0  gapm.o ABSOLUTE
    ..\..\..\..\..\sdk\ble_stack\profiles\custom\custom_common.c 0x00000000   Number         0  custom_common.o ABSOLUTE
    ..\..\..\..\..\sdk\ble_stack\profiles\custom\custs\custs1.c 0x00000000   Number         0  custs1.o ABSOLUTE
    ..\..\..\..\..\sdk\ble_stack\profiles\custom\custs\custs1_task.c 0x00000000   Number         0  custs1_task.o ABSOLUTE
    ..\..\..\..\..\sdk\ble_stack\profiles\dis\diss\diss.c 0x00000000   Number         0  diss.o ABSOLUTE
    ..\..\..\..\..\sdk\ble_stack\profiles\dis\diss\diss_task.c 0x00000000   Number         0  diss_task.o ABSOLUTE
    ..\..\..\..\..\sdk\ble_stack\profiles\prf_utils.c 0x00000000   Number         0  prf_utils.o ABSOLUTE
    ..\..\..\..\..\sdk\ble_stack\profiles\spota\spotar\spotar.c 0x00000000   Number         0  spotar.o ABSOLUTE
    ..\..\..\..\..\sdk\ble_stack\profiles\spota\spotar\spotar_task.c 0x00000000   Number         0  spotar_task.o ABSOLUTE
    ..\..\..\..\..\sdk\ble_stack\rwble\rwble.c 0x00000000   Number         0  rwble.o ABSOLUTE
    ..\..\..\..\..\sdk\platform\arch\boot\rvds\boot_vectors.s 0x00000000   Number         0  boot_vectors.o ABSOLUTE
    ..\..\..\..\..\sdk\platform\arch\boot\rvds\system_ARMCM0.c 0x00000000   Number         0  system_armcm0.o ABSOLUTE
    ..\..\..\..\..\sdk\platform\arch\main\arch_main.c 0x00000000   Number         0  arch_main.o ABSOLUTE
    ..\..\..\..\..\sdk\platform\arch\main\arch_patch.c 0x00000000   Number         0  arch_patch.o ABSOLUTE
    ..\..\..\..\..\sdk\platform\arch\main\arch_sleep.c 0x00000000   Number         0  arch_sleep.o ABSOLUTE
    ..\..\..\..\..\sdk\platform\arch\main\arch_system.c 0x00000000   Number         0  arch_system.o ABSOLUTE
    ..\..\..\..\..\sdk\platform\arch\main\hardfault_handler.c 0x00000000   Number         0  hardfault_handler.o ABSOLUTE
    ..\..\..\..\..\sdk\platform\arch\main\jump_table.c 0x00000000   Number         0  jump_table.o ABSOLUTE
    ..\..\..\..\..\sdk\platform\arch\main\nmi_handler.c 0x00000000   Number         0  nmi_handler.o ABSOLUTE
    ..\..\..\..\..\sdk\platform\core_modules\arch_console\arch_console.c 0x00000000   Number         0  arch_console.o ABSOLUTE
    ..\..\..\..\..\sdk\platform\core_modules\nvds\src\nvds.c 0x00000000   Number         0  nvds.o ABSOLUTE
    ..\..\..\..\..\sdk\platform\core_modules\rf\src\rf_580.c 0x00000000   Number         0  rf_580.o ABSOLUTE
    ..\..\..\..\..\sdk\platform\core_modules\rwip\src\rwip.c 0x00000000   Number         0  rwip.o ABSOLUTE
    ..\..\..\..\..\sdk\platform\driver\adc\adc.c 0x00000000   Number         0  adc.o ABSOLUTE
    ..\..\..\..\..\sdk\platform\driver\battery\battery.c 0x00000000   Number         0  battery.o ABSOLUTE
    ..\..\..\..\..\sdk\platform\driver\gpio\gpio.c 0x00000000   Number         0  gpio.o ABSOLUTE
    ..\..\..\..\..\sdk\platform\driver\i2c_eeprom\i2c_eeprom.c 0x00000000   Number         0  i2c_eeprom.o ABSOLUTE
    ..\..\..\..\..\sdk\platform\driver\pwm\pwm.c 0x00000000   Number         0  pwm.o ABSOLUTE
    ..\..\..\..\..\sdk\platform\driver\spi\spi.c 0x00000000   Number         0  spi.o ABSOLUTE
    ..\..\..\..\..\sdk\platform\driver\spi_flash\spi_flash.c 0x00000000   Number         0  spi_flash.o ABSOLUTE
    ..\..\..\..\..\sdk\platform\driver\syscntl\syscntl.c 0x00000000   Number         0  syscntl.o ABSOLUTE
    ..\..\..\..\..\sdk\platform\driver\trng\trng.c 0x00000000   Number         0  trng.o ABSOLUTE
    ..\..\..\..\..\sdk\platform\driver\uart\uart2.c 0x00000000   Number         0  uart2.o ABSOLUTE
    ..\..\..\..\..\sdk\platform\driver\wkupct_quadec\wkupct_quadec.c 0x00000000   Number         0  wkupct_quadec.o ABSOLUTE
    ..\..\..\..\..\sdk\platform\patch_code\DA14580\src\atts_task.c 0x00000000   Number         0  atts_task.obj ABSOLUTE
    ..\..\..\..\..\sdk\platform\patch_code\DA14580\src\gapc_task.c 0x00000000   Number         0  gapc_task.obj ABSOLUTE
    ..\..\..\..\..\sdk\platform\patch_code\DA14580\src\llc.c 0x00000000   Number         0  llc.obj ABSOLUTE
    ..\..\..\..\..\sdk\platform\patch_code\DA14580\src\llc_con_update_ind.c 0x00000000   Number         0  llc_con_update_ind.obj ABSOLUTE
    ..\..\..\..\..\sdk\platform\patch_code\DA14580\src\smpc.c 0x00000000   Number         0  smpc.obj ABSOLUTE
    ..\..\..\..\..\sdk\platform\patch_code\DA14580\src\smpc_task.c 0x00000000   Number         0  smpc_task.obj ABSOLUTE
    ..\..\..\..\..\sdk\platform\patch_code\common_src\atts_util.c 0x00000000   Number         0  atts_util.obj ABSOLUTE
    ..\..\..\..\patch_code\DA14580\src\ke_task.c 0x00000000   Number         0  ke_task.obj ABSOLUTE
    ..\..\..\patch_code\src\ke_mem.c         0x00000000   Number         0  ke_mem.obj ABSOLUTE
    ..\src\custom_profile\user_custs1_def.c  0x00000000   Number         0  user_custs1_def.o ABSOLUTE
    ..\src\custom_profile\user_custs_config.c 0x00000000   Number         0  user_custs_config.o ABSOLUTE
    ..\src\platform\user_periph_setup.c      0x00000000   Number         0  user_periph_setup.o ABSOLUTE
    ..\src\user_profile.c                    0x00000000   Number         0  user_profile.o ABSOLUTE
    handlers.s                               0x00000000   Number         0  handlers.o ABSOLUTE
    init.s                                   0x00000000   Number         0  init.o ABSOLUTE
    user_add\LIS2DS12_ACC_driver.c           0x00000000   Number         0  lis2ds12_acc_driver.o ABSOLUTE
    user_add\fk_oled.c                       0x00000000   Number         0  fk_oled.o ABSOLUTE
    user_add\my_adc.c                        0x00000000   Number         0  my_adc.o ABSOLUTE
    user_add\my_int.c                        0x00000000   Number         0  my_int.o ABSOLUTE
    user_add\my_timer.c                      0x00000000   Number         0  my_timer.o ABSOLUTE
    heap_db_area                             0x00080768   Section     1036  jump_table.o(heap_db_area)
    heap_env_area                            0x00080b74   Section      340  jump_table.o(heap_env_area)
    heap_msg_area                            0x00080cc8   Section     1324  jump_table.o(heap_msg_area)
    BLE_exchange_memory                      0x00082a20   Section     1502  arch_main.o(BLE_exchange_memory)
    __tagsym$$used                           0x00082a20   Number         0  arch_main.o(BLE_exchange_memory)
    RESET                                    0x20000000   Section      160  boot_vectors.o(RESET)
    jump_table_mem_area                      0x20000160   Section      352  jump_table.o(jump_table_mem_area)
    timeout_table_area                       0x200002c0   Section      100  gapm.o(timeout_table_area)
    nvds_data_storage_area                   0x20000340   Section      164  nvds.o(nvds_data_storage_area)
    .ARM.Collect$$$$00000000                 0x20000440   Section        0  entry.o(.ARM.Collect$$$$00000000)
    .ARM.Collect$$$$00000001                 0x20000440   Section        4  entry2.o(.ARM.Collect$$$$00000001)
    .ARM.Collect$$$$00000004                 0x20000444   Section        4  entry5.o(.ARM.Collect$$$$00000004)
    .ARM.Collect$$$$00000008                 0x20000448   Section        0  entry7b.o(.ARM.Collect$$$$00000008)
    .ARM.Collect$$$$0000000A                 0x20000448   Section        0  entry8b.o(.ARM.Collect$$$$0000000A)
    .ARM.Collect$$$$0000000B                 0x20000448   Section        8  entry9a.o(.ARM.Collect$$$$0000000B)
    .ARM.Collect$$$$0000000D                 0x20000450   Section        0  entry10a.o(.ARM.Collect$$$$0000000D)
    .ARM.Collect$$$$0000000F                 0x20000450   Section        0  entry11a.o(.ARM.Collect$$$$0000000F)
    .ARM.Collect$$$$00002712                 0x20000450   Section        4  entry2.o(.ARM.Collect$$$$00002712)
    __lit__00000000                          0x20000450   Data           4  entry2.o(.ARM.Collect$$$$00002712)
    .text                                    0x20000454   Section        0  system_armcm0.o(.text)
    .text                                    0x200004a4   Section      108  boot_vectors.o(.text)
    NMI_Handler                              0x200004ad   Thumb Code    24  boot_vectors.o(.text)
    HardFault_Handler                        0x200004c5   Thumb Code    24  boot_vectors.o(.text)
    SVC_Handler                              0x200004dd   Thumb Code    24  boot_vectors.o(.text)
    .text                                    0x20000510   Section        0  hardfault_handler.o(.text)
    .text                                    0x20000528   Section        0  nmi_handler.o(.text)
    .text                                    0x20000560   Section        0  nvds.o(.text)
    .text                                    0x20000620   Section        0  arch_main.o(.text)
    SetupPedoEvent                           0x20000621   Thumb Code    32  arch_main.o(.text)
    init_LIS2DS12_Pedometer                  0x20000641   Thumb Code    26  arch_main.o(.text)
    .text                                    0x200009a0   Section        0  jump_table.o(.text)
    .text                                    0x200009a4   Section        0  arch_sleep.o(.text)
    .text                                    0x20000a54   Section        0  arch_system.o(.text)
    uart_is_rx_fifo_empty                    0x20000b1d   Thumb Code    20  arch_system.o(.text)
    .text                                    0x20000d9c   Section        0  arch_patch.o(.text)
    llm_rom_default_handler                  0x20000d9d   Thumb Code    48  arch_patch.o(.text)
    my_lld_data_ind_handler                  0x20000dcd   Thumb Code   134  arch_patch.o(.text)
    cmp_abs_time                             0x20000e7b   Thumb Code    22  arch_patch.o(.text)
    gapc_create                              0x20000e91   Thumb Code    36  arch_patch.o(.text)
    .text                                    0x20000fdc   Section        0  atts_task.obj(.text)
    my_l2cc_pdu_recv_ind_handler             0x20000fdd   Thumb Code   234  atts_task.obj(.text)
    .text                                    0x200010fc   Section        0  atts_util.obj(.text)
    .text                                    0x200011bc   Section        0  ch_map.obj(.text)
    .text                                    0x20001280   Section        0  gapm_util.obj(.text)
    gapm_adv_sanity                          0x20001351   Thumb Code   170  gapm_util.obj(.text)
    .text                                    0x20001400   Section        0  ke_task.obj(.text)
    ke_task_schedule                         0x20001401   Thumb Code   172  ke_task.obj(.text)
    .text                                    0x200014d0   Section        0  smpc.obj(.text)
    .text                                    0x2000162c   Section        0  smpc_task.obj(.text)
    .text                                    0x20001840   Section        0  llc.obj(.text)
    my_llcp_enc_req_handler                  0x20001989   Thumb Code   140  llc.obj(.text)
    my_llc_le_con_update_cmd_handler         0x20001a15   Thumb Code    30  llc.obj(.text)
    my_lld_stop_ind_handler                  0x20001a89   Thumb Code   104  llc.obj(.text)
    my_llc_llcp_tx_cfm_handler               0x20001af1   Thumb Code    76  llc.obj(.text)
    my_llcp_start_enc_rsp_handler            0x20001bdb   Thumb Code    48  llc.obj(.text)
    my_llcp_channel_map_req_handler          0x20001c0b   Thumb Code   102  llc.obj(.text)
    my_llc_llcp_rsp_to_ind_handler           0x20001c71   Thumb Code    38  llc.obj(.text)
    my_llc_link_sup_to_ind_handler           0x20001c97   Thumb Code    38  llc.obj(.text)
    llc_rom_default_handler                  0x20001cbd   Thumb Code    40  llc.obj(.text)
    .text                                    0x20001d14   Section        0  gapc_task.obj(.text)
    gapc_rom_default_handler                 0x20001d15   Thumb Code    40  gapc_task.obj(.text)
    my_llc_event_common_cmd_status_handler   0x20001d3d   Thumb Code   134  gapc_task.obj(.text)
    my_llc_discon_cmp_evt_handler            0x20001dc3   Thumb Code   116  gapc_task.obj(.text)
    .text                                    0x20001e74   Section        0  llc_con_update_ind.obj(.text)
    .text                                    0x20001f04   Section        0  syscntl.o(.text)
    .text                                    0x20001f30   Section        0  gpio.o(.text)
    gpioshift16                              0x20001f31   Thumb Code    34  gpio.o(.text)
    .text                                    0x20002148   Section        0  wkupct_quadec.o(.text)
    .text                                    0x200021c0   Section        0  battery.o(.text)
    .text                                    0x2000226c   Section        0  adc.o(.text)
    .text                                    0x20002384   Section        0  trng.o(.text)
    .text                                    0x20002564   Section        0  spi_flash.o(.text)
    .text                                    0x20002764   Section        0  spi.o(.text)
    .text                                    0x200028d0   Section        0  i2c_eeprom.o(.text)
    i2c_send_address                         0x20002969   Thumb Code    68  i2c_eeprom.o(.text)
    read_data_single                         0x20002a05   Thumb Code   112  i2c_eeprom.o(.text)
    .text                                    0x20002c04   Section        0  uart2.o(.text)
    uart2_rec_error_isr                      0x20002c05   Thumb Code    32  uart2.o(.text)
    uart2_thr_empty_isr                      0x20002c25   Thumb Code    78  uart2.o(.text)
    .text                                    0x20002e80   Section        0  pwm.o(.text)
    .text                                    0x20002ee8   Section        0  rf_580.o(.text)
    rf_sleep                                 0x20002f31   Thumb Code    14  rf_580.o(.text)
    RADIOCNTL_Handler                        0x20002f3f   Thumb Code     2  rf_580.o(.text)
    rf_rssi_convert                          0x20003015   Thumb Code     4  rf_580.o(.text)
    .text                                    0x200031e8   Section        0  rwble.o(.text)
    ble_start                                0x20003479   Thumb Code    14  rwble.o(.text)
    .text                                    0x20003594   Section        0  rwip.o(.text)
    rwip_slot_2_lpcycles                     0x20003595   Thumb Code    18  rwip.o(.text)
    rwip_slot_2_lpcycles_rcx                 0x200035a7   Thumb Code    24  rwip.o(.text)
    .text                                    0x20003770   Section        0  diss.o(.text)
    .text                                    0x2000381c   Section        0  diss_task.o(.text)
    diss_create_db_req_handler               0x2000381d   Thumb Code    88  diss_task.o(.text)
    diss_set_char_val_req_handler            0x20003875   Thumb Code    80  diss_task.o(.text)
    diss_enable_req_handler                  0x200038c5   Thumb Code    56  diss_task.o(.text)
    gapc_disconnect_ind_handler              0x200038fd   Thumb Code    22  diss_task.o(.text)
    .text                                    0x2000392c   Section        0  prf_utils.o(.text)
    fix_service_changed_char_prop            0x20003981   Thumb Code    54  prf_utils.o(.text)
    .text                                    0x20003a70   Section        0  custs1.o(.text)
    .text                                    0x20003ac4   Section        0  custs1_task.o(.text)
    custs1_create_db_req_handler             0x20003ac5   Thumb Code   142  custs1_task.o(.text)
    custs1_enable_req_handler                0x20003b53   Thumb Code    56  custs1_task.o(.text)
    gattc_write_cmd_ind_handler              0x20003b8b   Thumb Code  1116  custs1_task.o(.text)
    gattc_cmp_evt_handler                    0x20003fe7   Thumb Code    92  custs1_task.o(.text)
    custs1_val_set_req_handler               0x20004043   Thumb Code    38  custs1_task.o(.text)
    custs1_val_ntf_req_handler               0x20004069   Thumb Code   140  custs1_task.o(.text)
    custs1_val_ind_req_handler               0x200040f5   Thumb Code   140  custs1_task.o(.text)
    gapc_disconnect_ind_handler              0x20004181   Thumb Code    22  custs1_task.o(.text)
    .text                                    0x200041b0   Section        0  custom_common.o(.text)
    .text                                    0x20004200   Section        0  spotar.o(.text)
    .text                                    0x20004258   Section        0  spotar_task.o(.text)
    spotar_create_db_req_handler             0x20004259   Thumb Code   484  spotar_task.o(.text)
    spotar_status_update_req_handler         0x2000443d   Thumb Code    78  spotar_task.o(.text)
    spotar_mem_info_update_req_handler       0x2000448b   Thumb Code    22  spotar_task.o(.text)
    spotar_enable_req_handler                0x200044a1   Thumb Code    88  spotar_task.o(.text)
    gattc_write_cmd_ind_handler              0x200044f9   Thumb Code   470  spotar_task.o(.text)
    gapc_disconnect_ind_handler              0x200046cf   Thumb Code    22  spotar_task.o(.text)
    .text                                    0x200046e8   Section        0  app_default_handlers.o(.text)
    .text                                    0x20004738   Section        0  app.o(.text)
    app_task_in_user_app                     0x20004739   Thumb Code    42  app.o(.text)
    app_db_init_next                         0x2000481d   Thumb Code   220  app.o(.text)
    app_easy_gap_adv_read_from_NVDS          0x200048f9   Thumb Code    90  app.o(.text)
    app_easy_gap_place_name_ad_struct        0x20004953   Thumb Code    36  app.o(.text)
    app_easy_gap_undirected_advertise_start_create_msg 0x20004977   Thumb Code   202  app.o(.text)
    app_easy_gap_param_update_msg_create     0x20004a41   Thumb Code    52  app.o(.text)
    app_easy_gap_dev_config_create_msg       0x20004a75   Thumb Code    78  app.o(.text)
    .text                                    0x20004c4c   Section        0  app_task.o(.text)
    gapm_device_ready_ind_handler            0x20004c4d   Thumb Code    36  app_task.o(.text)
    gapm_cmp_evt_handler                     0x20004c71   Thumb Code   108  app_task.o(.text)
    gapc_connection_req_ind_handler          0x20004cdd   Thumb Code    90  app_task.o(.text)
    gapc_cmp_evt_handler                     0x20004d37   Thumb Code    58  app_task.o(.text)
    gapc_disconnect_ind_handler              0x20004d71   Thumb Code    32  app_task.o(.text)
    app_module_init_cmp_evt_handler          0x20004d91   Thumb Code    36  app_task.o(.text)
    gapm_adv_report_ind_handler              0x20004db5   Thumb Code     4  app_task.o(.text)
    .text                                    0x20004de8   Section        0  app_diss.o(.text)
    .text                                    0x20004e30   Section        0  app_diss_task.o(.text)
    diss_create_db_cfm_handler               0x20004e31   Thumb Code   290  app_diss_task.o(.text)
    diss_disable_ind_handler                 0x20004f53   Thumb Code     4  app_diss_task.o(.text)
    .text                                    0x20004fb0   Section        0  app_spotar.o(.text)
    .text                                    0x200058f4   Section        0  app_spotar_task.o(.text)
    spotar_create_db_cfm_handler             0x200058f5   Thumb Code    38  app_spotar_task.o(.text)
    spotar_patch_data_ind_handler            0x2000591b   Thumb Code   180  app_spotar_task.o(.text)
    spotar_patch_mem_dev_ind_handler         0x200059cf   Thumb Code    26  app_spotar_task.o(.text)
    spotar_gpio_map_ind_handler              0x200059e9   Thumb Code    58  app_spotar_task.o(.text)
    spotar_patch_len_ind_handler             0x20005a23   Thumb Code    88  app_spotar_task.o(.text)
    .text                                    0x20005aac   Section        0  app_entry_point.o(.text)
    handler_search                           0x20005aeb   Thumb Code    54  app_entry_point.o(.text)
    .text                                    0x20005b60   Section        0  app_msg_utils.o(.text)
    .text                                    0x20005b88   Section        0  app_easy_timer.o(.text)
    set_callback                             0x20005b89   Thumb Code    32  app_easy_timer.o(.text)
    call_callback                            0x20005ba9   Thumb Code    28  app_easy_timer.o(.text)
    create_timer                             0x20005bc5   Thumb Code    56  app_easy_timer.o(.text)
    create_timer_handler                     0x20005bfd   Thumb Code    52  app_easy_timer.o(.text)
    cancel_timer_handler                     0x20005c31   Thumb Code    84  app_easy_timer.o(.text)
    modify_timer_handler                     0x20005c85   Thumb Code    58  app_easy_timer.o(.text)
    call_callback_handler                    0x20005cbf   Thumb Code    16  app_easy_timer.o(.text)
    .text                                    0x20005dc4   Section        0  app_easy_timer.o(.text)
    timer_canceled_handler                   0x20005dc5   Thumb Code     2  app_easy_timer.o(.text)
    .text                                    0x20005dc6   Section        0  app_easy_timer.o(.text)
    timer_modified_handler                   0x20005dc7   Thumb Code     2  app_easy_timer.o(.text)
    .text                                    0x20005dc8   Section        0  app_customs.o(.text)
    .text                                    0x20005e40   Section        0  app_customs_task.o(.text)
    app_custs1_create_db_cfm_handler         0x20005e41   Thumb Code    38  app_customs_task.o(.text)
    app_custs1_disable_ind_handler           0x20005e67   Thumb Code     4  app_customs_task.o(.text)
    .text                                    0x20005e90   Section        0  user_periph_setup.o(.text)
    .text                                    0x20005ff8   Section        0  user_profile.o(.text)
    mnf_data_init                            0x20005ff9   Thumb Code    26  user_profile.o(.text)
    mnf_data_update                          0x20006013   Thumb Code    34  user_profile.o(.text)
    adv_data_update_timer_cb                 0x20006035   Thumb Code     8  user_profile.o(.text)
    param_update_request_timer_cb            0x2000603d   Thumb Code    16  user_profile.o(.text)
    app_add_ad_struct                        0x2000605f   Thumb Code    82  user_profile.o(.text)
    .text                                    0x200061a0   Section        0  fk_oled.o(.text)
    Delay_ms                                 0x200061a1   Thumb Code    26  fk_oled.o(.text)
    .text                                    0x20006a48   Section        0  my_int.o(.text)
    .text                                    0x20006a90   Section        0  my_timer.o(.text)
    .text                                    0x20006d14   Section        0  lis2ds12_acc_driver.o(.text)
    .text                                    0x20006ed0   Section        0  my_adc.o(.text)
    .text                                    0x20006ef0   Section       36  init.o(.text)
    i.__ARM_common_ll_muluu                  0x20007580   Section        0  rwip.o(i.__ARM_common_ll_muluu)
    i.__scatterload_copy                     0x200075b2   Section       14  handlers.o(i.__scatterload_copy)
    i.__scatterload_null                     0x200075c0   Section        2  handlers.o(i.__scatterload_null)
    i.__scatterload_zeroinit                 0x200075c2   Section       14  handlers.o(i.__scatterload_zeroinit)
    i.free                                   0x200075d0   Section        0  malloc.o(i.free)
    i.malloc                                 0x20007624   Section        0  malloc.o(i.malloc)
    i.set_tmr_div                            0x20007690   Section        0  pwm.o(i.set_tmr_div)
    i.set_tmr_enable                         0x200076a8   Section        0  pwm.o(i.set_tmr_enable)
    i.timer0_register_callback               0x200076c0   Section        0  pwm.o(i.timer0_register_callback)
    i.timer0_set_pwm_high_counter            0x200076cc   Section        0  pwm.o(i.timer0_set_pwm_high_counter)
    i.timer0_set_pwm_low_counter             0x200076d8   Section        0  pwm.o(i.timer0_set_pwm_low_counter)
    i.timer0_set_pwm_on_counter              0x200076e4   Section        0  pwm.o(i.timer0_set_pwm_on_counter)
    i.timer0_start                           0x200076f0   Section        0  pwm.o(i.timer0_start)
    i.timer0_stop                            0x20007700   Section        0  pwm.o(i.timer0_stop)
    .constdata                               0x20007710   Section       22  jump_table.o(.constdata)
    .constdata                               0x20007728   Section        4  arch_patch.o(.constdata)
    .constdata                               0x2000772c   Section       16  arch_patch.o(.constdata)
    my_llm_default_state                     0x2000772c   Data          16  arch_patch.o(.constdata)
    .constdata                               0x2000773c   Section        8  arch_patch.o(.constdata)
    my_llm_default_handler                   0x2000773c   Data           8  arch_patch.o(.constdata)
    .constdata                               0x20007744   Section      112  arch_patch.o(.constdata)
    TASK_DESC_LLM                            0x20007744   Data          16  arch_patch.o(.constdata)
    patch_table                              0x20007754   Data          32  arch_patch.o(.constdata)
    patch_slots                              0x20007774   Data          64  arch_patch.o(.constdata)
    .constdata                               0x200077b4   Section       48  atts_task.obj(.constdata)
    my_atts_default_state                    0x200077b4   Data          48  atts_task.obj(.constdata)
    .constdata                               0x200077e4   Section       40  atts_task.obj(.constdata)
    my_atts_state_handler                    0x200077e4   Data          40  atts_task.obj(.constdata)
    .constdata                               0x2000780c   Section        8  atts_task.obj(.constdata)
    .constdata                               0x20007814   Section       16  atts_task.obj(.constdata)
    .constdata                               0x20007824   Section       72  llc.obj(.constdata)
    my_llc_default_state                     0x20007824   Data          72  llc.obj(.constdata)
    .constdata                               0x2000786c   Section       16  llc.obj(.constdata)
    my_llc_stopping                          0x2000786c   Data          16  llc.obj(.constdata)
    .constdata                               0x2000787c   Section      176  llc.obj(.constdata)
    .constdata                               0x2000792c   Section        8  llc.obj(.constdata)
    .constdata                               0x20007934   Section       16  llc.obj(.constdata)
    .constdata                               0x20007944   Section       24  gapc_task.obj(.constdata)
    patched_gapc_default_state               0x20007944   Data          24  gapc_task.obj(.constdata)
    .constdata                               0x2000795c   Section        8  gapc_task.obj(.constdata)
    patched_gapc_default_handler             0x2000795c   Data           8  gapc_task.obj(.constdata)
    .constdata                               0x20007964   Section       16  gapc_task.obj(.constdata)
    patched_TASK_DESC_GAPC                   0x20007964   Data          16  gapc_task.obj(.constdata)
    .constdata                               0x20007974   Section      228  diss.o(.constdata)
    .constdata                               0x20007a58   Section        2  diss.o(.constdata)
    .constdata                               0x20007a5a   Section        5  diss.o(.constdata)
    .constdata                               0x20007a5f   Section        5  diss.o(.constdata)
    .constdata                               0x20007a64   Section        5  diss.o(.constdata)
    .constdata                               0x20007a69   Section        5  diss.o(.constdata)
    .constdata                               0x20007a6e   Section        5  diss.o(.constdata)
    .constdata                               0x20007a73   Section        5  diss.o(.constdata)
    .constdata                               0x20007a78   Section        5  diss.o(.constdata)
    .constdata                               0x20007a7d   Section        5  diss.o(.constdata)
    .constdata                               0x20007a82   Section        5  diss.o(.constdata)
    .constdata                               0x20007a88   Section       16  diss.o(.constdata)
    TASK_DESC_DISS                           0x20007a88   Data          16  diss.o(.constdata)
    .constdata                               0x20007a98   Section        8  diss_task.o(.constdata)
    .constdata                               0x20007aa0   Section       16  diss_task.o(.constdata)
    .constdata                               0x20007ab0   Section        8  diss_task.o(.constdata)
    .constdata                               0x20007ab8   Section       24  diss_task.o(.constdata)
    .constdata                               0x20007ad0   Section        8  diss_task.o(.constdata)
    .constdata                               0x20007ad8   Section       16  custs1.o(.constdata)
    TASK_DESC_CUSTS1                         0x20007ad8   Data          16  custs1.o(.constdata)
    .constdata                               0x20007ae8   Section        8  custs1_task.o(.constdata)
    .constdata                               0x20007af0   Section        8  custs1_task.o(.constdata)
    .constdata                               0x20007af8   Section       40  custs1_task.o(.constdata)
    .constdata                               0x20007b20   Section        8  custs1_task.o(.constdata)
    .constdata                               0x20007b28   Section       24  custs1_task.o(.constdata)
    .constdata                               0x20007b40   Section        8  custs1_task.o(.constdata)
    .constdata                               0x20007b48   Section        2  spotar.o(.constdata)
    .constdata                               0x20007b4a   Section       16  spotar.o(.constdata)
    .constdata                               0x20007b5a   Section       16  spotar.o(.constdata)
    .constdata                               0x20007b6a   Section       16  spotar.o(.constdata)
    .constdata                               0x20007b7a   Section       16  spotar.o(.constdata)
    .constdata                               0x20007b8a   Section       16  spotar.o(.constdata)
    .constdata                               0x20007b9a   Section       16  spotar.o(.constdata)
    .constdata                               0x20007bac   Section       16  spotar.o(.constdata)
    TASK_DESC_SPOTAR                         0x20007bac   Data          16  spotar.o(.constdata)
    .constdata                               0x20007bbc   Section        8  spotar_task.o(.constdata)
    .constdata                               0x20007bc4   Section        8  spotar_task.o(.constdata)
    .constdata                               0x20007bcc   Section       24  spotar_task.o(.constdata)
    .constdata                               0x20007be4   Section        8  spotar_task.o(.constdata)
    .constdata                               0x20007bec   Section       24  spotar_task.o(.constdata)
    .constdata                               0x20007c04   Section        8  spotar_task.o(.constdata)
    .constdata                               0x20007c0c   Section      116  app.o(.constdata)
    user_adv_conf                            0x20007c0c   Data          18  app.o(.constdata)
    user_gapm_conf                           0x20007c1e   Data          34  app.o(.constdata)
    user_prf_funcs                           0x20007c40   Data          12  app.o(.constdata)
    TASK_DESC_APP                            0x20007c70   Data          16  app.o(.constdata)
    .constdata                               0x20007c80   Section       60  app_task.o(.constdata)
    app_process_catch_rest_cb                0x20007c80   Data           4  app_task.o(.constdata)
    app_gap_process_handlers                 0x20007c84   Data          56  app_task.o(.constdata)
    .constdata                               0x20007cbc   Section        8  app_task.o(.constdata)
    .constdata                               0x20007cc4   Section        8  app_task.o(.constdata)
    .constdata                               0x20007ccc   Section       16  app_diss_task.o(.constdata)
    app_diss_process_handlers                0x20007ccc   Data          16  app_diss_task.o(.constdata)
    .constdata                               0x20007cdc   Section       40  app_spotar_task.o(.constdata)
    app_spotar_process_handlers              0x20007cdc   Data          40  app_spotar_task.o(.constdata)
    .constdata                               0x20007d04   Section       24  app_entry_point.o(.constdata)
    app_process_catch_rest_cb                0x20007d04   Data           4  app_entry_point.o(.constdata)
    .constdata                               0x20007d1c   Section       16  app_customs_task.o(.constdata)
    app_custs1_process_handlers              0x20007d1c   Data          16  app_customs_task.o(.constdata)
    .constdata                               0x20007d2c   Section       56  user_custs_config.o(.constdata)
    .constdata                               0x20007d64   Section        2  user_custs1_def.o(.constdata)
    custs1_svc                               0x20007d64   Data           2  user_custs1_def.o(.constdata)
    .constdata                               0x20007d66   Section        5  user_custs1_def.o(.constdata)
    custs1_indicateable_char                 0x20007d66   Data           5  user_custs1_def.o(.constdata)
    .constdata                               0x20007d6b   Section        5  user_custs1_def.o(.constdata)
    custs1_long_value_char                   0x20007d6b   Data           5  user_custs1_def.o(.constdata)
    .constdata                               0x20007d70   Section       13  user_custs1_def.o(.constdata)
    custs1_indicateable_desc                 0x20007d70   Data          13  user_custs1_def.o(.constdata)
    .constdata                               0x20007d7d   Section       11  user_custs1_def.o(.constdata)
    custs1_long_value_desc                   0x20007d7d   Data          11  user_custs1_def.o(.constdata)
    .constdata                               0x20007d88   Section      108  user_custs1_def.o(.constdata)
    .data                                    0x20007e24   Section        1  arch_main.o(.data)
    .data                                    0x20007e28   Section        4  arch_system.o(.data)
    .data                                    0x20007e2c   Section       19  spotar.o(.data)
    .data                                    0x20007e3f   Section       19  spotar.o(.data)
    .data                                    0x20007e52   Section       19  spotar.o(.data)
    .data                                    0x20007e65   Section       19  spotar.o(.data)
    .data                                    0x20007e78   Section       19  spotar.o(.data)
    .data                                    0x20007e8b   Section       19  spotar.o(.data)
    .data                                    0x20007e9e   Section       41  fk_oled.o(.data)
    .data                                    0x20007ec7   Section        1  my_int.o(.data)
    first_flag                               0x20007ec7   Data           1  my_int.o(.data)
    .data                                    0x20007ec8   Section        2  my_adc.o(.data)
    .data                                    0x20007ecc   Section        4  mvars.o(.data)
    .data                                    0x20007ed0   Section        4  mvars.o(.data)
    .bss                                     0x20008000   Section        6  arch_main.o(.bss)
    .bss                                     0x20008006   Section        1  arch_main.o(.bss)
    .bss                                     0x20008008   Section       20  gpio.o(.bss)
    .bss                                     0x2000801c   Section       16  spi_flash.o(.bss)
    .bss                                     0x2000802c   Section        2  spi.o(.bss)
    .bss                                     0x2000802e   Section        2  i2c_eeprom.o(.bss)
    mem_address_size                         0x2000802e   Data           1  i2c_eeprom.o(.bss)
    i2c_dev_address                          0x2000802f   Data           1  i2c_eeprom.o(.bss)
    .bss                                     0x20008030   Section      141  uart2.o(.bss)
    .bss                                     0x200080c0   Section        4  pwm.o(.bss)
    .bss                                     0x200080c4   Section        3  user_profile.o(.bss)
    .bss                                     0x200080c8   Section     2060  fk_oled.o(.bss)
    .bss                                     0x200088d4   Section        1  my_int.o(.bss)
    .bss                                     0x200088d8   Section       44  my_timer.o(.bss)
    HEAP                                     0x20008908   Section      256  boot_vectors.o(HEAP)
    retention_mem_area0                      0x20008a08   Section        6  nvds.o(retention_mem_area0)
    retention_mem_area0                      0x20008a0e   Section        1  arch_main.o(retention_mem_area0)
    retention_mem_area0                      0x20008a0f   Section        4  arch_sleep.o(retention_mem_area0)
    retention_mem_area0                      0x20008a14   Section       24  arch_system.o(retention_mem_area0)
    retention_mem_area0                      0x20008a30   Section        8  atts_util.obj(retention_mem_area0)
    retention_mem_area0                      0x20008a38   Section       24  llc.obj(retention_mem_area0)
    retention_mem_area0                      0x20008a50   Section       12  wkupct_quadec.o(retention_mem_area0)
    QUADDEC_callback                         0x20008a54   Data           4  wkupct_quadec.o(retention_mem_area0)
    WKUPCT_callback                          0x20008a58   Data           4  wkupct_quadec.o(retention_mem_area0)
    retention_mem_area0                      0x20008a5c   Section       28  uart2.o(retention_mem_area0)
    uart2_env                                0x20008a5c   Data          28  uart2.o(retention_mem_area0)
    retention_mem_area0                      0x20008a78   Section        1  rf_580.o(retention_mem_area0)
    near_field_mode                          0x20008a78   Data           1  rf_580.o(retention_mem_area0)
    retention_mem_area0                      0x20008a7a   Section        8  rwble.o(retention_mem_area0)
    prev_rx                                  0x20008a7c   Data           1  rwble.o(retention_mem_area0)
    retention_mem_area0                      0x20008a82   Section       18  diss.o(retention_mem_area0)
    retention_mem_area0                      0x20008a94   Section        1  diss_task.o(retention_mem_area0)
    retention_mem_area0                      0x20008a96   Section       14  custs1.o(retention_mem_area0)
    retention_mem_area0                      0x20008aa4   Section        1  custs1_task.o(retention_mem_area0)
    retention_mem_area0                      0x20008aa6   Section        8  spotar.o(retention_mem_area0)
    retention_mem_area0                      0x20008aae   Section        1  spotar_task.o(retention_mem_area0)
    retention_mem_area0                      0x20008ab0   Section       56  app.o(retention_mem_area0)
    i                                        0x20008ab0   Data           1  app.o(retention_mem_area0)
    k                                        0x20008ab1   Data           1  app.o(retention_mem_area0)
    j                                        0x20008ab2   Data           1  app.o(retention_mem_area0)
    adv_timer_id                             0x20008ab3   Data           1  app.o(retention_mem_area0)
    param_update_cmd                         0x20008ab4   Data           4  app.o(retention_mem_area0)
    set_dev_config_cmd                       0x20008ab8   Data           4  app.o(retention_mem_area0)
    adv_cmd                                  0x20008abc   Data           4  app.o(retention_mem_area0)
    start_connection_cmd                     0x20008ac0   Data           4  app.o(retention_mem_area0)
    adv_timeout_callback                     0x20008ac4   Data           4  app.o(retention_mem_area0)
    retention_mem_area0                      0x20008ae8   Section        1  app_task.o(retention_mem_area0)
    retention_mem_area0                      0x20008aec   Section       48  app_spotar.o(retention_mem_area0)
    active_conhdl                            0x20008aec   Data           2  app_spotar.o(retention_mem_area0)
    retention_mem_area0                      0x20008b1c   Section       80  app_easy_timer.o(retention_mem_area0)
    timer_callbacks                          0x20008b1c   Data          40  app_easy_timer.o(retention_mem_area0)
    modified_timer_callbacks                 0x20008b44   Data          40  app_easy_timer.o(retention_mem_area0)
    retention_mem_area0                      0x20008b6c   Section        6  user_profile.o(retention_mem_area0)
    heap_mem_area_not_ret                    0x20008bf4   Section     1036  jump_table.o(heap_mem_area_not_ret)
    spotar_patch_area                        0x20009020   Section      336  app_spotar.o(spotar_patch_area)
    STACK                                    0x20009200   Section     1536  boot_vectors.o(STACK)
    .ARM.__AT_0x50000004                     0x50000004   Section        4  pwm.o(.ARM.__AT_0x50000004)
    .ARM.__AT_0x50003400                     0x50003400   Section        4  pwm.o(.ARM.__AT_0x50003400)
    .ARM.__AT_0x50003410                     0x50003410   Section        4  pwm.o(.ARM.__AT_0x50003410)

    Global Symbols

    Symbol Name                              Value     Ov Type        Size  Object(Section)

    BuildAttributes$$THM_ISAv3M$S$PE$A:L22$X:L11$S22$IEEE1$IW$USESV6$~STKCKD$USESV7$~SHL$OTIME$EBA8$MICROLIB$REQ8$PRES8$EABIv2 0x00000000   Number         0  anon$$obj.o ABSOLUTE
    __ARM_use_no_argv                        0x00000000   Number         0  rom_symdef.txt ABSOLUTE
    __cpp_initialize__aeabi_                  - Undefined Weak Reference
    __cxa_finalize                            - Undefined Weak Reference
    __decompress                              - Undefined Weak Reference
    _clock_init                               - Undefined Weak Reference
    _microlib_exit                            - Undefined Weak Reference
    __Vectors_Size                           0x000000a0   Number         0  boot_vectors.o ABSOLUTE
    exec_patching_spota                      0x000210b1   Thumb Code     0  rom_symdef.txt ABSOLUTE
    get_patching_spota_length                0x00021171   Thumb Code     0  rom_symdef.txt ABSOLUTE
    set_system_clocks                        0x00021b55   Thumb Code     0  rom_symdef.txt ABSOLUTE
    set_peripheral_clocks                    0x00021b8b   Thumb Code     0  rom_symdef.txt ABSOLUTE
    rf_workaround_init                       0x00021d23   Thumb Code     0  rom_symdef.txt ABSOLUTE
    get_stack_usage                          0x00021d79   Thumb Code     0  rom_symdef.txt ABSOLUTE
    platform_reset                           0x00021d7d   Thumb Code     0  rom_symdef.txt ABSOLUTE
    platform_reset_func                      0x00021d83   Thumb Code     0  rom_symdef.txt ABSOLUTE
    main                                     0x000220c7   Thumb Code     0  rom_symdef.txt ABSOLUTE
    rwip_eif_get                             0x000220cd   Thumb Code     0  rom_symdef.txt ABSOLUTE
    rwip_eif_get_func                        0x000220d5   Thumb Code     0  rom_symdef.txt ABSOLUTE
    app_get_sleep_mode                       0x0002211f   Thumb Code     0  rom_symdef.txt ABSOLUTE
    co_buf_init                              0x00022141   Thumb Code     0  rom_symdef.txt ABSOLUTE
    co_buf_init_deep_sleep                   0x000221a3   Thumb Code     0  rom_symdef.txt ABSOLUTE
    co_buf_rx_free                           0x00022205   Thumb Code     0  rom_symdef.txt ABSOLUTE
    co_list_init                             0x00022225   Thumb Code     0  rom_symdef.txt ABSOLUTE
    co_list_push_back                        0x0002222f   Thumb Code     0  rom_symdef.txt ABSOLUTE
    co_list_pool_init                        0x0002224b   Thumb Code     0  rom_symdef.txt ABSOLUTE
    co_list_push_front                       0x000222ab   Thumb Code     0  rom_symdef.txt ABSOLUTE
    co_list_pop_front                        0x000222bf   Thumb Code     0  rom_symdef.txt ABSOLUTE
    co_list_extract                          0x000222d3   Thumb Code     0  rom_symdef.txt ABSOLUTE
    co_list_find                             0x000222fb   Thumb Code     0  rom_symdef.txt ABSOLUTE
    co_list_merge                            0x00022311   Thumb Code     0  rom_symdef.txt ABSOLUTE
    co_bdaddr_compare                        0x00022321   Thumb Code     0  rom_symdef.txt ABSOLUTE
    dbg_init                                 0x0002233d   Thumb Code     0  rom_symdef.txt ABSOLUTE
    dbg_platform_reset_complete              0x00022351   Thumb Code     0  rom_symdef.txt ABSOLUTE
    llc_init                                 0x000228b5   Thumb Code     0  rom_symdef.txt ABSOLUTE
    llc_stop                                 0x000228e5   Thumb Code     0  rom_symdef.txt ABSOLUTE
    llc_reset                                0x00022909   Thumb Code     0  rom_symdef.txt ABSOLUTE
    llc_create_con_cmd_complete_send         0x00022931   Thumb Code     0  rom_symdef.txt ABSOLUTE
    llc_start                                0x000229a9   Thumb Code     0  rom_symdef.txt ABSOLUTE
    llc_discon_event_complete_send           0x00022a6f   Thumb Code     0  rom_symdef.txt ABSOLUTE
    llc_con_update_cmd_complete_send         0x00022a91   Thumb Code     0  rom_symdef.txt ABSOLUTE
    llc_ltk_req_send                         0x00022aeb   Thumb Code     0  rom_symdef.txt ABSOLUTE
    llc_feats_rd_event_send                  0x00022b29   Thumb Code     0  rom_symdef.txt ABSOLUTE
    llc_version_rd_event_send                0x00022b69   Thumb Code     0  rom_symdef.txt ABSOLUTE
    llc_common_cmd_complete_send             0x00022ba1   Thumb Code     0  rom_symdef.txt ABSOLUTE
    llc_common_cmd_status_send               0x00022bb7   Thumb Code     0  rom_symdef.txt ABSOLUTE
    llc_common_enc_change_evt_send           0x00022bcd   Thumb Code     0  rom_symdef.txt ABSOLUTE
    llc_common_nb_of_pkt_comp_evt_send       0x00022bf5   Thumb Code     0  rom_symdef.txt ABSOLUTE
    llc_con_update_ind                       0x00022c1d   Thumb Code     0  rom_symdef.txt ABSOLUTE
    llc_map_update_ind                       0x00022c83   Thumb Code     0  rom_symdef.txt ABSOLUTE
    llc_chnl_map_req_send                    0x00022d21   Thumb Code     0  rom_symdef.txt ABSOLUTE
    llc_add_bad_chnl                         0x00022d3b   Thumb Code     0  rom_symdef.txt ABSOLUTE
    llc_pdu_send                             0x00022dc5   Thumb Code     0  rom_symdef.txt ABSOLUTE
    llc_version_ind_pdu_send                 0x00022e29   Thumb Code     0  rom_symdef.txt ABSOLUTE
    llc_ch_map_update_pdu_send               0x00022e5f   Thumb Code     0  rom_symdef.txt ABSOLUTE
    llc_pause_enc_req_pdu_send               0x00022e9f   Thumb Code     0  rom_symdef.txt ABSOLUTE
    llc_pause_enc_rsp_pdu_send               0x00022edb   Thumb Code     0  rom_symdef.txt ABSOLUTE
    llc_enc_req_pdu_send                     0x00022f2b   Thumb Code     0  rom_symdef.txt ABSOLUTE
    llc_enc_rsp_pdu_send                     0x00022feb   Thumb Code     0  rom_symdef.txt ABSOLUTE
    llc_start_enc_rsp_pdu_send               0x0002307b   Thumb Code     0  rom_symdef.txt ABSOLUTE
    llc_reject_ind_pdu_send                  0x000230bd   Thumb Code     0  rom_symdef.txt ABSOLUTE
    llc_con_update_pdu_send                  0x000230e7   Thumb Code     0  rom_symdef.txt ABSOLUTE
    llc_feats_req_pdu_send                   0x0002312b   Thumb Code     0  rom_symdef.txt ABSOLUTE
    llc_start_enc_req_pdu_send               0x00023169   Thumb Code     0  rom_symdef.txt ABSOLUTE
    llc_terminate_ind_pdu_send               0x0002321f   Thumb Code     0  rom_symdef.txt ABSOLUTE
    llc_unknown_rsp_send_pdu                 0x00023293   Thumb Code     0  rom_symdef.txt ABSOLUTE
    llc_feats_req_ind                        0x000232b3   Thumb Code     0  rom_symdef.txt ABSOLUTE
    llc_feats_rsp_ind                        0x000232f7   Thumb Code     0  rom_symdef.txt ABSOLUTE
    llc_unknown_rsp_ind                      0x0002333f   Thumb Code     0  rom_symdef.txt ABSOLUTE
    llc_vers_ind_ind                         0x00023341   Thumb Code     0  rom_symdef.txt ABSOLUTE
    llc_con_update_req_ind                   0x000233bf   Thumb Code     0  rom_symdef.txt ABSOLUTE
    llc_ch_map_req_ind                       0x0002341b   Thumb Code     0  rom_symdef.txt ABSOLUTE
    llc_terminate_ind                        0x00023467   Thumb Code     0  rom_symdef.txt ABSOLUTE
    llc_reject_ind                           0x0002349f   Thumb Code     0  rom_symdef.txt ABSOLUTE
    llc_pause_enc_req_ind                    0x000234c7   Thumb Code     0  rom_symdef.txt ABSOLUTE
    llc_pause_enc_rsp_ind                    0x000234f5   Thumb Code     0  rom_symdef.txt ABSOLUTE
    llc_enc_req_ind                          0x00023563   Thumb Code     0  rom_symdef.txt ABSOLUTE
    llc_enc_rsp_ind                          0x00023625   Thumb Code     0  rom_symdef.txt ABSOLUTE
    llc_start_enc_req_ind                    0x000236cf   Thumb Code     0  rom_symdef.txt ABSOLUTE
    llc_start_enc_rsp_ind                    0x0002373b   Thumb Code     0  rom_symdef.txt ABSOLUTE
    llc_cntl_rcv                             0x000237cb   Thumb Code     0  rom_symdef.txt ABSOLUTE
    llc_data_rcv                             0x00023861   Thumb Code     0  rom_symdef.txt ABSOLUTE
    llc_le_con_update_cmd_handler            0x000238b9   Thumb Code     0  rom_symdef.txt ABSOLUTE
    llc_le_rd_chnl_map_cmd_handler           0x00023993   Thumb Code     0  rom_symdef.txt ABSOLUTE
    llc_le_rd_rem_used_feats_cmd_handler     0x000239d9   Thumb Code     0  rom_symdef.txt ABSOLUTE
    llc_le_start_enc_cmd_handler             0x00023a1f   Thumb Code     0  rom_symdef.txt ABSOLUTE
    llc_le_ltk_req_reply_cmd_handler         0x00023ad7   Thumb Code     0  rom_symdef.txt ABSOLUTE
    llc_le_ltk_req_neg_reply_cmd_handler     0x00023b41   Thumb Code     0  rom_symdef.txt ABSOLUTE
    llc_flush_cmd_handler                    0x00023bb7   Thumb Code     0  rom_symdef.txt ABSOLUTE
    llc_disconnect_cmd_handler               0x00023c09   Thumb Code     0  rom_symdef.txt ABSOLUTE
    llc_rd_rssi_cmd_handler                  0x00023c6f   Thumb Code     0  rom_symdef.txt ABSOLUTE
    llc_rd_tx_pow_lvl_cmd_handler            0x00023cd9   Thumb Code     0  rom_symdef.txt ABSOLUTE
    llc_rd_rem_info_ver_cmd_handler          0x00023d4b   Thumb Code     0  rom_symdef.txt ABSOLUTE
    llc_set_host_ch_class_cmd_handler        0x00023dc9   Thumb Code     0  rom_symdef.txt ABSOLUTE
    llm_gen_chnl_cls_cmd_handler             0x00023e21   Thumb Code     0  rom_symdef.txt ABSOLUTE
    llc_link_sup_to_ind_handler              0x00023e7f   Thumb Code     0  rom_symdef.txt ABSOLUTE
    llc_llcp_rsp_to_ind_handler              0x00023eb9   Thumb Code     0  rom_symdef.txt ABSOLUTE
    llc_data_req_handler                     0x00023f4d   Thumb Code     0  rom_symdef.txt ABSOLUTE
    lld_data_ind_handler                     0x00023fef   Thumb Code     0  rom_symdef.txt ABSOLUTE
    llm_le_enc_cmp_evt_handler               0x000241cf   Thumb Code     0  rom_symdef.txt ABSOLUTE
    lld_stop_ind_handler                     0x0002422d   Thumb Code     0  rom_symdef.txt ABSOLUTE
    llc_data_ind_handler                     0x00024299   Thumb Code     0  rom_symdef.txt ABSOLUTE
    llc_llcp_unknown_ind_handler             0x0002433d   Thumb Code     0  rom_symdef.txt ABSOLUTE
    llc_version_ind_send_handler             0x0002439b   Thumb Code     0  rom_symdef.txt ABSOLUTE
    llc_unknown_rsp_send_handler             0x000243c5   Thumb Code     0  rom_symdef.txt ABSOLUTE
    llcp_terminate_ind_handler               0x000243f1   Thumb Code     0  rom_symdef.txt ABSOLUTE
    llcp_feats_req_handler                   0x00024411   Thumb Code     0  rom_symdef.txt ABSOLUTE
    llcp_feats_rsp_handler                   0x00024459   Thumb Code     0  rom_symdef.txt ABSOLUTE
    llcp_vers_ind_handler                    0x0002448d   Thumb Code     0  rom_symdef.txt ABSOLUTE
    llcp_con_up_req_handler                  0x000244cd   Thumb Code     0  rom_symdef.txt ABSOLUTE
    llcp_channel_map_req_handler             0x00024525   Thumb Code     0  rom_symdef.txt ABSOLUTE
    llcp_enc_req_handler                     0x0002456d   Thumb Code     0  rom_symdef.txt ABSOLUTE
    llcp_enc_rsp_handler                     0x000245f7   Thumb Code     0  rom_symdef.txt ABSOLUTE
    llcp_start_enc_req_handler               0x0002462b   Thumb Code     0  rom_symdef.txt ABSOLUTE
    llcp_start_enc_rsp_handler               0x00024663   Thumb Code     0  rom_symdef.txt ABSOLUTE
    llcp_pause_enc_req_handler               0x00024693   Thumb Code     0  rom_symdef.txt ABSOLUTE
    llcp_pause_enc_rsp_handler               0x00024715   Thumb Code     0  rom_symdef.txt ABSOLUTE
    llcp_reject_ind_handler                  0x00024745   Thumb Code     0  rom_symdef.txt ABSOLUTE
    llcp_unknown_rsp_handler                 0x00024797   Thumb Code     0  rom_symdef.txt ABSOLUTE
    llc_llcp_tx_cfm_handler                  0x000247eb   Thumb Code     0  rom_symdef.txt ABSOLUTE
    llc_util_get_free_conhdl                 0x00024825   Thumb Code     0  rom_symdef.txt ABSOLUTE
    llc_util_dicon_procedure                 0x00024855   Thumb Code     0  rom_symdef.txt ABSOLUTE
    llc_util_gen_skdx                        0x00024885   Thumb Code     0  rom_symdef.txt ABSOLUTE
    llc_util_update_channel_map              0x000248a7   Thumb Code     0  rom_symdef.txt ABSOLUTE
    llc_util_set_llcp_discard_enable         0x000248b9   Thumb Code     0  rom_symdef.txt ABSOLUTE
    enable_BLE_core_irq                      0x00024909   Thumb Code     0  rom_symdef.txt ABSOLUTE
    enable_BLE_core_irq_func                 0x0002490f   Thumb Code     0  rom_symdef.txt ABSOLUTE
    lld_init                                 0x000249d1   Thumb Code     0  rom_symdef.txt ABSOLUTE
    lld_init_func                            0x000249d7   Thumb Code     0  rom_symdef.txt ABSOLUTE
    lld_reset                                0x00024b79   Thumb Code     0  rom_symdef.txt ABSOLUTE
    lld_scan_start                           0x00024bcb   Thumb Code     0  rom_symdef.txt ABSOLUTE
    lld_scan_stop                            0x00024c7d   Thumb Code     0  rom_symdef.txt ABSOLUTE
    lld_con_start                            0x00024c89   Thumb Code     0  rom_symdef.txt ABSOLUTE
    lld_move_to_master                       0x00024ed3   Thumb Code     0  rom_symdef.txt ABSOLUTE
    lld_con_update_req                       0x00024edb   Thumb Code     0  rom_symdef.txt ABSOLUTE
    lld_ch_map_req                           0x00024f1b   Thumb Code     0  rom_symdef.txt ABSOLUTE
    lld_adv_start                            0x00024f23   Thumb Code     0  rom_symdef.txt ABSOLUTE
    lld_adv_stop                             0x00025013   Thumb Code     0  rom_symdef.txt ABSOLUTE
    lld_ch_map_ind                           0x0002501f   Thumb Code     0  rom_symdef.txt ABSOLUTE
    lld_con_update_ind                       0x00025033   Thumb Code     0  rom_symdef.txt ABSOLUTE
    lld_move_to_slave                        0x00025047   Thumb Code     0  rom_symdef.txt ABSOLUTE
    lld_con_stop                             0x00025139   Thumb Code     0  rom_symdef.txt ABSOLUTE
    lld_test_stop                            0x00025143   Thumb Code     0  rom_symdef.txt ABSOLUTE
    lld_test_stop_func                       0x00025149   Thumb Code     0  rom_symdef.txt ABSOLUTE
    lld_crypt_isr                            0x00025161   Thumb Code     0  rom_symdef.txt ABSOLUTE
    lld_test_mode_tx                         0x00025171   Thumb Code     0  rom_symdef.txt ABSOLUTE
    lld_test_mode_tx_func                    0x00025177   Thumb Code     0  rom_symdef.txt ABSOLUTE
    lld_test_mode_rx                         0x00025229   Thumb Code     0  rom_symdef.txt ABSOLUTE
    lld_test_mode_rx_func                    0x0002522f   Thumb Code     0  rom_symdef.txt ABSOLUTE
    lld_data_tx_loop                         0x0002542d   Thumb Code     0  rom_symdef.txt ABSOLUTE
    lld_data_tx_push                         0x00025453   Thumb Code     0  rom_symdef.txt ABSOLUTE
    lld_data_tx_prog                         0x000254d9   Thumb Code     0  rom_symdef.txt ABSOLUTE
    lld_data_check                           0x000255b5   Thumb Code     0  rom_symdef.txt ABSOLUTE
    lld_data_tx_flush                        0x00025603   Thumb Code     0  rom_symdef.txt ABSOLUTE
    lld_evt_int_extract                      0x00025877   Thumb Code     0  rom_symdef.txt ABSOLUTE
    lld_evt_init                             0x00025f5f   Thumb Code     0  rom_symdef.txt ABSOLUTE
    lld_evt_try_free                         0x00025f65   Thumb Code     0  rom_symdef.txt ABSOLUTE
    lld_evt_end                              0x00025f81   Thumb Code     0  rom_symdef.txt ABSOLUTE
    lld_evt_rx                               0x00026023   Thumb Code     0  rom_symdef.txt ABSOLUTE
    lld_evt_schedule                         0x00026041   Thumb Code     0  rom_symdef.txt ABSOLUTE
    lld_evt_init_func                        0x000260e9   Thumb Code     0  rom_symdef.txt ABSOLUTE
    lld_evt_conhdl2evt                       0x00026147   Thumb Code     0  rom_symdef.txt ABSOLUTE
    lld_evt_ack_received                     0x0002615d   Thumb Code     0  rom_symdef.txt ABSOLUTE
    lld_evt_schedule_next                    0x00026169   Thumb Code     0  rom_symdef.txt ABSOLUTE
    lld_evt_delete                           0x00026277   Thumb Code     0  rom_symdef.txt ABSOLUTE
    lld_evt_scan_create                      0x000262e7   Thumb Code     0  rom_symdef.txt ABSOLUTE
    lld_evt_move_to_master                   0x00026323   Thumb Code     0  rom_symdef.txt ABSOLUTE
    lld_evt_update_create                    0x000263c3   Thumb Code     0  rom_symdef.txt ABSOLUTE
    lld_evt_ch_map_update_req                0x00026411   Thumb Code     0  rom_symdef.txt ABSOLUTE
    lld_evt_move_to_slave                    0x00026429   Thumb Code     0  rom_symdef.txt ABSOLUTE
    lld_evt_slave_update                     0x00026531   Thumb Code     0  rom_symdef.txt ABSOLUTE
    lld_evt_ch_map_update_ind                0x000265b9   Thumb Code     0  rom_symdef.txt ABSOLUTE
    lld_evt_adv_create                       0x000265cd   Thumb Code     0  rom_symdef.txt ABSOLUTE
    lld_evt_start_isr                        0x0002661b   Thumb Code     0  rom_symdef.txt ABSOLUTE
    lld_evt_end_isr                          0x0002662b   Thumb Code     0  rom_symdef.txt ABSOLUTE
    lld_evt_rx_isr                           0x0002663b   Thumb Code     0  rom_symdef.txt ABSOLUTE
    lld_evt_timer_isr                        0x0002664b   Thumb Code     0  rom_symdef.txt ABSOLUTE
    lld_sleep_us_2_lpcycles                  0x00026821   Thumb Code     0  rom_symdef.txt ABSOLUTE
    lld_sleep_us_2_lpcycles_func             0x00026827   Thumb Code     0  rom_symdef.txt ABSOLUTE
    lld_sleep_lpcycles_2_us                  0x00026833   Thumb Code     0  rom_symdef.txt ABSOLUTE
    lld_sleep_lpcycles_2_us_func             0x00026839   Thumb Code     0  rom_symdef.txt ABSOLUTE
    lld_sleep_compensate                     0x0002684b   Thumb Code     0  rom_symdef.txt ABSOLUTE
    lld_sleep_compensate_func                0x00026851   Thumb Code     0  rom_symdef.txt ABSOLUTE
    lld_sleep_init                           0x0002687b   Thumb Code     0  rom_symdef.txt ABSOLUTE
    lld_sleep_enter                          0x000268c7   Thumb Code     0  rom_symdef.txt ABSOLUTE
    lld_sleep_wakeup                         0x000268ef   Thumb Code     0  rom_symdef.txt ABSOLUTE
    lld_sleep_wakeup_end                     0x0002691f   Thumb Code     0  rom_symdef.txt ABSOLUTE
    lld_sleep_check                          0x0002692b   Thumb Code     0  rom_symdef.txt ABSOLUTE
    lld_util_get_bd_address                  0x000269b5   Thumb Code     0  rom_symdef.txt ABSOLUTE
    lld_util_set_bd_address                  0x000269d5   Thumb Code     0  rom_symdef.txt ABSOLUTE
    llm_wl_clr                               0x00026a65   Thumb Code     0  rom_symdef.txt ABSOLUTE
    llm_encryption_done                      0x00026a9b   Thumb Code     0  rom_symdef.txt ABSOLUTE
    llm_init                                 0x00026aa1   Thumb Code     0  rom_symdef.txt ABSOLUTE
    llm_common_cmd_complete_send             0x00026c0b   Thumb Code     0  rom_symdef.txt ABSOLUTE
    llm_ble_ready                            0x00026c1d   Thumb Code     0  rom_symdef.txt ABSOLUTE
    llm_con_req_ind                          0x00026c27   Thumb Code     0  rom_symdef.txt ABSOLUTE
    llm_adv_report_set                       0x00026cc5   Thumb Code     0  rom_symdef.txt ABSOLUTE
    llm_le_adv_report_ind                    0x00026d33   Thumb Code     0  rom_symdef.txt ABSOLUTE
    llm_con_req_tx_cfm                       0x00026e11   Thumb Code     0  rom_symdef.txt ABSOLUTE
    llm_common_cmd_status_send               0x00026e9d   Thumb Code     0  rom_symdef.txt ABSOLUTE
    llm_test_mode_start_tx                   0x00026eaf   Thumb Code     0  rom_symdef.txt ABSOLUTE
    llm_test_mode_start_rx                   0x00026f7b   Thumb Code     0  rom_symdef.txt ABSOLUTE
    llm_set_adv_param                        0x00026fb9   Thumb Code     0  rom_symdef.txt ABSOLUTE
    llm_set_adv_en                           0x00027091   Thumb Code     0  rom_symdef.txt ABSOLUTE
    llm_set_adv_data                         0x0002712d   Thumb Code     0  rom_symdef.txt ABSOLUTE
    llm_set_scan_rsp_data                    0x00027159   Thumb Code     0  rom_symdef.txt ABSOLUTE
    llm_set_scan_param                       0x00027187   Thumb Code     0  rom_symdef.txt ABSOLUTE
    llm_set_scan_en                          0x000271df   Thumb Code     0  rom_symdef.txt ABSOLUTE
    llm_wl_dev_add                           0x0002724b   Thumb Code     0  rom_symdef.txt ABSOLUTE
    llm_wl_dev_rem                           0x00027299   Thumb Code     0  rom_symdef.txt ABSOLUTE
    llm_create_con                           0x000272c9   Thumb Code     0  rom_symdef.txt ABSOLUTE
    llm_encryption_start                     0x0002741d   Thumb Code     0  rom_symdef.txt ABSOLUTE
    llm_encryption_done_func                 0x000274a5   Thumb Code     0  rom_symdef.txt ABSOLUTE
    llm_get_chnl_assess_nb_pkt               0x00027539   Thumb Code     0  rom_symdef.txt ABSOLUTE
    llm_get_chnl_assess_nb_bad_pkt           0x00027541   Thumb Code     0  rom_symdef.txt ABSOLUTE
    llm_get_min_rssi                         0x00027549   Thumb Code     0  rom_symdef.txt ABSOLUTE
    llm_delete_event                         0x00027553   Thumb Code     0  rom_symdef.txt ABSOLUTE
    TASK_LLM_llm_le_set_evt_msk_cmd_handler  0x00027585   Thumb Code     0  rom_symdef.txt ABSOLUTE
    TASK_LLM_llm_le_set_rand_add_cmd_handler 0x000275a1   Thumb Code     0  rom_symdef.txt ABSOLUTE
    TASK_LLM_llm_le_set_adv_param_cmd_handler 0x000275d3   Thumb Code     0  rom_symdef.txt ABSOLUTE
    TASK_LLM_llm_le_set_adv_data_cmd_handler 0x000275fd   Thumb Code     0  rom_symdef.txt ABSOLUTE
    TASK_LLM_llm_le_set_adv_en_cmd_handler   0x00027617   Thumb Code     0  rom_symdef.txt ABSOLUTE
    TASK_LLM_llm_le_set_scan_rsp_data_cmd_handler 0x0002765d   Thumb Code     0  rom_symdef.txt ABSOLUTE
    TASK_LLM_llm_le_set_scan_param_cmd_handler 0x00027687   Thumb Code     0  rom_symdef.txt ABSOLUTE
    TASK_LLM_llm_le_set_scan_en_cmd_handler  0x000276b1   Thumb Code     0  rom_symdef.txt ABSOLUTE
    TASK_LLM_llm_le_set_host_ch_class_cmd_handler 0x000276f7   Thumb Code     0  rom_symdef.txt ABSOLUTE
    TASK_LLM_llm_le_test_rx_cmd_handler      0x00027773   Thumb Code     0  rom_symdef.txt ABSOLUTE
    TASK_LLM_llm_le_test_tx_cmd_handler      0x000277c3   Thumb Code     0  rom_symdef.txt ABSOLUTE
    TASK_LLM_llm_le_wl_clr_cmd_handler       0x00027813   Thumb Code     0  rom_symdef.txt ABSOLUTE
    TASK_LLM_llm_le_wl_dev_add_cmd_handler   0x00027853   Thumb Code     0  rom_symdef.txt ABSOLUTE
    TASK_LLM_llm_le_wl_dev_rem_cmd_handler   0x00027895   Thumb Code     0  rom_symdef.txt ABSOLUTE
    TASK_LLM_llm_le_create_con_cmd_handler   0x000278d7   Thumb Code     0  rom_symdef.txt ABSOLUTE
    TASK_LLM_llm_le_create_con_cancel_cmd_handler 0x00027909   Thumb Code     0  rom_symdef.txt ABSOLUTE
    TASK_LLM_llm_le_chnl_assess_timer_handler 0x00027957   Thumb Code     0  rom_symdef.txt ABSOLUTE
    TASK_LLM_llm_le_rd_loc_supp_feats_cmd_handler 0x000279cb   Thumb Code     0  rom_symdef.txt ABSOLUTE
    TASK_LLM_llm_le_rd_adv_ch_tx_pw_cmd_handler 0x000279f3   Thumb Code     0  rom_symdef.txt ABSOLUTE
    TASK_LLM_llm_le_rd_wl_size_cmd_handler   0x00027a21   Thumb Code     0  rom_symdef.txt ABSOLUTE
    TASK_LLM_llm_le_rd_supp_states_cmd_handler 0x00027a43   Thumb Code     0  rom_symdef.txt ABSOLUTE
    TASK_LLM_llm_le_rd_buff_size_cmd_handler 0x00027a6b   Thumb Code     0  rom_symdef.txt ABSOLUTE
    TASK_LLM_llm_le_enc_cmd_handler          0x00027a8d   Thumb Code     0  rom_symdef.txt ABSOLUTE
    TASK_LLM_llm_le_rand_cmd_handler         0x00027aad   Thumb Code     0  rom_symdef.txt ABSOLUTE
    TASK_LLM_llm_le_test_end_cmd_handler     0x00027af3   Thumb Code     0  rom_symdef.txt ABSOLUTE
    TASK_LLM_llm_le_set_host_ch_class_cmd_sto_handler 0x00027b31   Thumb Code     0  rom_symdef.txt ABSOLUTE
    TASK_LLM_llm_reset_cmd_handler           0x00027b3b   Thumb Code     0  rom_symdef.txt ABSOLUTE
    TASK_LLM_llm_rd_bd_addr_cmd_handler      0x00027b53   Thumb Code     0  rom_symdef.txt ABSOLUTE
    TASK_LLM_llm_rd_local_ver_info_cmd_handler 0x00027b7d   Thumb Code     0  rom_symdef.txt ABSOLUTE
    TASK_LLM_llm_rd_local_supp_cmds_cmd_handler 0x00027ba7   Thumb Code     0  rom_symdef.txt ABSOLUTE
    TASK_LLM_llm_rd_local_supp_feats_cmd_handler 0x00027bcf   Thumb Code     0  rom_symdef.txt ABSOLUTE
    TASK_LLM_llm_set_evt_msk_cmd_handler     0x00027bf9   Thumb Code     0  rom_symdef.txt ABSOLUTE
    TASK_LLM_llm_set_cntl_host_flow_cmd_handler 0x00027c0b   Thumb Code     0  rom_symdef.txt ABSOLUTE
    TASK_LLM_llm_host_buff_size_cmd_handler  0x00027c6b   Thumb Code     0  rom_symdef.txt ABSOLUTE
    TASK_LLM_llm_host_nb_comp_pkts_cmd_handler 0x00027c8d   Thumb Code     0  rom_symdef.txt ABSOLUTE
    TASK_LLM_llm_rd_buff_size_cmd_handler    0x00027cf7   Thumb Code     0  rom_symdef.txt ABSOLUTE
    TASK_LLM_lld_data_ind_handler            0x00027d19   Thumb Code     0  rom_symdef.txt ABSOLUTE
    TASK_LLM_llm_disconnect_mgt              0x00027e6d   Thumb Code     0  rom_symdef.txt ABSOLUTE
    llm_util_bd_addr_in_wl                   0x00027e99   Thumb Code     0  rom_symdef.txt ABSOLUTE
    llm_util_check_address_validity          0x00027f19   Thumb Code     0  rom_symdef.txt ABSOLUTE
    llm_util_check_map_validity              0x00027f29   Thumb Code     0  rom_symdef.txt ABSOLUTE
    llm_util_apply_bd_addr                   0x00027f73   Thumb Code     0  rom_symdef.txt ABSOLUTE
    llm_util_set_public_addr                 0x00027f8b   Thumb Code     0  rom_symdef.txt ABSOLUTE
    llm_util_clear_adv_report                0x00027f99   Thumb Code     0  rom_symdef.txt ABSOLUTE
    llm_util_get_role                        0x00027fbb   Thumb Code     0  rom_symdef.txt ABSOLUTE
    llm_util_set_role                        0x00027fc3   Thumb Code     0  rom_symdef.txt ABSOLUTE
    llm_util_check_evt_mask                  0x00027fcb   Thumb Code     0  rom_symdef.txt ABSOLUTE
    llm_util_get_channel_map                 0x00027feb   Thumb Code     0  rom_symdef.txt ABSOLUTE
    uart_thr_empty_isr                       0x00028019   Thumb Code     0  rom_symdef.txt ABSOLUTE
    uart_init                                0x0002805d   Thumb Code     0  rom_symdef.txt ABSOLUTE
    uart_init_func                           0x00028063   Thumb Code     0  rom_symdef.txt ABSOLUTE
    uart_flow_on                             0x000280b7   Thumb Code     0  rom_symdef.txt ABSOLUTE
    uart_flow_on_func                        0x000280bd   Thumb Code     0  rom_symdef.txt ABSOLUTE
    uart_flow_off                            0x000280c5   Thumb Code     0  rom_symdef.txt ABSOLUTE
    uart_finish_transfers                    0x000280f5   Thumb Code     0  rom_symdef.txt ABSOLUTE
    uart_finish_transfers_func               0x000280fb   Thumb Code     0  rom_symdef.txt ABSOLUTE
    uart_read                                0x00028113   Thumb Code     0  rom_symdef.txt ABSOLUTE
    uart_read_func                           0x00028119   Thumb Code     0  rom_symdef.txt ABSOLUTE
    uart_write                               0x0002812f   Thumb Code     0  rom_symdef.txt ABSOLUTE
    uart_write_func                          0x00028135   Thumb Code     0  rom_symdef.txt ABSOLUTE
    UART_Handler                             0x00028157   Thumb Code     0  rom_symdef.txt ABSOLUTE
    UART_Handler_func                        0x0002815d   Thumb Code     0  rom_symdef.txt ABSOLUTE
    GPADC_init                               0x00028201   Thumb Code     0  rom_symdef.txt ABSOLUTE
    GPADC_init_func                          0x00028207   Thumb Code     0  rom_symdef.txt ABSOLUTE
    meas_precharge_freq                      0x0002826b   Thumb Code     0  rom_symdef.txt ABSOLUTE
    meas_precharge_freq_func                 0x00028271   Thumb Code     0  rom_symdef.txt ABSOLUTE
    check_pll_lock                           0x000283a7   Thumb Code     0  rom_symdef.txt ABSOLUTE
    check_pll_lock_func                      0x000283ad   Thumb Code     0  rom_symdef.txt ABSOLUTE
    update_calcap_min_channel                0x00028489   Thumb Code     0  rom_symdef.txt ABSOLUTE
    update_calcap_min_channel_func           0x00028493   Thumb Code     0  rom_symdef.txt ABSOLUTE
    update_calcap_max_channel                0x00028537   Thumb Code     0  rom_symdef.txt ABSOLUTE
    update_calcap_max_channel_func           0x00028541   Thumb Code     0  rom_symdef.txt ABSOLUTE
    write_one_SW_LUT_entry                   0x000285d9   Thumb Code     0  rom_symdef.txt ABSOLUTE
    write_one_SW_LUT_entry_func              0x00028615   Thumb Code     0  rom_symdef.txt ABSOLUTE
    write_HW_LUT                             0x00028631   Thumb Code     0  rom_symdef.txt ABSOLUTE
    write_HW_LUT_func                        0x00028637   Thumb Code     0  rom_symdef.txt ABSOLUTE
    clear_HW_LUT                             0x00028659   Thumb Code     0  rom_symdef.txt ABSOLUTE
    clear_HW_LUT_func                        0x0002865f   Thumb Code     0  rom_symdef.txt ABSOLUTE
    update_LUT                               0x0002866f   Thumb Code     0  rom_symdef.txt ABSOLUTE
    update_LUT_func                          0x00028675   Thumb Code     0  rom_symdef.txt ABSOLUTE
    save_configure_restore                   0x000287f3   Thumb Code     0  rom_symdef.txt ABSOLUTE
    save_configure_restore_func              0x000287f9   Thumb Code     0  rom_symdef.txt ABSOLUTE
    update_calcap_ranges                     0x0002891f   Thumb Code     0  rom_symdef.txt ABSOLUTE
    update_calcap_ranges_func                0x00028925   Thumb Code     0  rom_symdef.txt ABSOLUTE
    find_initial_calcap_ranges               0x00028a57   Thumb Code     0  rom_symdef.txt ABSOLUTE
    find_initial_calcap_ranges_func          0x00028a5d   Thumb Code     0  rom_symdef.txt ABSOLUTE
    pll_vcocal_LUT_InitUpdate                0x00028ccd   Thumb Code     0  rom_symdef.txt ABSOLUTE
    pll_vcocal_LUT_InitUpdate_func           0x00028cd3   Thumb Code     0  rom_symdef.txt ABSOLUTE
    set_rf_cal_cap                           0x00028d03   Thumb Code     0  rom_symdef.txt ABSOLUTE
    set_rf_cal_cap_func                      0x00028d09   Thumb Code     0  rom_symdef.txt ABSOLUTE
    modulationGainCalibration                0x00028d3d   Thumb Code     0  rom_symdef.txt ABSOLUTE
    modulationGainCalibration_func           0x00028d43   Thumb Code     0  rom_symdef.txt ABSOLUTE
    DCoffsetCalibration                      0x00028e21   Thumb Code     0  rom_symdef.txt ABSOLUTE
    DCoffsetCalibration_func                 0x00028e27   Thumb Code     0  rom_symdef.txt ABSOLUTE
    IffCalibration                           0x00028ef3   Thumb Code     0  rom_symdef.txt ABSOLUTE
    IffCalibration_func                      0x00028ef9   Thumb Code     0  rom_symdef.txt ABSOLUTE
    rf_calibration                           0x00028f41   Thumb Code     0  rom_symdef.txt ABSOLUTE
    rf_calibration_func                      0x00028f47   Thumb Code     0  rom_symdef.txt ABSOLUTE
    get_rc16m_count                          0x00028f93   Thumb Code     0  rom_symdef.txt ABSOLUTE
    $Super$$get_rc16m_count_func             0x00028f99   Thumb Code     0  rom_symdef.txt ABSOLUTE
    set_gauss_modgain                        0x00028fcf   Thumb Code     0  rom_symdef.txt ABSOLUTE
    set_gauss_modgain_func                   0x00028fd5   Thumb Code     0  rom_symdef.txt ABSOLUTE
    enable_rf_diag_irq                       0x00029009   Thumb Code     0  rom_symdef.txt ABSOLUTE
    enable_rf_diag_irq_func                  0x0002900f   Thumb Code     0  rom_symdef.txt ABSOLUTE
    gtl_init                                 0x000290b1   Thumb Code     0  rom_symdef.txt ABSOLUTE
    gtl_enter_sleep                          0x000290d9   Thumb Code     0  rom_symdef.txt ABSOLUTE
    gtl_exit_sleep                           0x00029103   Thumb Code     0  rom_symdef.txt ABSOLUTE
    gtl_send_msg                             0x0002910b   Thumb Code     0  rom_symdef.txt ABSOLUTE
    gtl_hci_rx_header                        0x0002915d   Thumb Code     0  rom_symdef.txt ABSOLUTE
    gtl_hci_rx_header_func                   0x00029163   Thumb Code     0  rom_symdef.txt ABSOLUTE
    gtl_hci_rx_payload                       0x000291b1   Thumb Code     0  rom_symdef.txt ABSOLUTE
    gtl_hci_rx_payload_func                  0x000291b7   Thumb Code     0  rom_symdef.txt ABSOLUTE
    gtl_hci_tx_evt                           0x000291b9   Thumb Code     0  rom_symdef.txt ABSOLUTE
    gtl_hci_tx_evt_func                      0x000291bf   Thumb Code     0  rom_symdef.txt ABSOLUTE
    gtl_sleep_to_handler                     0x0002927d   Thumb Code     0  rom_symdef.txt ABSOLUTE
    gtl_polling_to_handler                   0x00029289   Thumb Code     0  rom_symdef.txt ABSOLUTE
    gtl_eif_init                             0x000293f7   Thumb Code     0  rom_symdef.txt ABSOLUTE
    gtl_eif_init_func                        0x000293fd   Thumb Code     0  rom_symdef.txt ABSOLUTE
    gtl_eif_write                            0x00029415   Thumb Code     0  rom_symdef.txt ABSOLUTE
    gtl_eif_start                            0x00029435   Thumb Code     0  rom_symdef.txt ABSOLUTE
    gtl_eif_stop                             0x0002943d   Thumb Code     0  rom_symdef.txt ABSOLUTE
    attc_cleanup                             0x000294f5   Thumb Code     0  rom_symdef.txt ABSOLUTE
    attc_init                                0x0002950d   Thumb Code     0  rom_symdef.txt ABSOLUTE
    attc_create                              0x00029533   Thumb Code     0  rom_symdef.txt ABSOLUTE
    attc_con_enable                          0x00029541   Thumb Code     0  rom_symdef.txt ABSOLUTE
    attm_init                                0x000296d5   Thumb Code     0  rom_symdef.txt ABSOLUTE
    attm_create                              0x000296f9   Thumb Code     0  rom_symdef.txt ABSOLUTE
    attm_con_enable                          0x00029709   Thumb Code     0  rom_symdef.txt ABSOLUTE
    attm_cleanup                             0x00029719   Thumb Code     0  rom_symdef.txt ABSOLUTE
    attm_convert_16to128                     0x00029729   Thumb Code     0  rom_symdef.txt ABSOLUTE
    attm_convert_32to128                     0x00029747   Thumb Code     0  rom_symdef.txt ABSOLUTE
    attm_bt_uuid_match                       0x00029767   Thumb Code     0  rom_symdef.txt ABSOLUTE
    attm_bt32_uuid_match                     0x0002978d   Thumb Code     0  rom_symdef.txt ABSOLUTE
    attm_convert_to128                       0x000297b9   Thumb Code     0  rom_symdef.txt ABSOLUTE
    attm_uuid_match                          0x000297e9   Thumb Code     0  rom_symdef.txt ABSOLUTE
    attm_uuid_match_16                       0x0002981d   Thumb Code     0  rom_symdef.txt ABSOLUTE
    attm_is_bt_uuid128                       0x00029829   Thumb Code     0  rom_symdef.txt ABSOLUTE
    attm_is_bt32_uuid128                     0x00029853   Thumb Code     0  rom_symdef.txt ABSOLUTE
    attmdb_add_service                       0x00029895   Thumb Code     0  rom_symdef.txt ABSOLUTE
    attmdb_get_service                       0x00029957   Thumb Code     0  rom_symdef.txt ABSOLUTE
    attmdb_add_attribute                     0x00029995   Thumb Code     0  rom_symdef.txt ABSOLUTE
    attmdb_destroy                           0x00029a6b   Thumb Code     0  rom_symdef.txt ABSOLUTE
    attmdb_get_attribute                     0x00029a85   Thumb Code     0  rom_symdef.txt ABSOLUTE
    attmdb_get_next_att                      0x00029aa1   Thumb Code     0  rom_symdef.txt ABSOLUTE
    attmdb_att_update_value                  0x00029b2b   Thumb Code     0  rom_symdef.txt ABSOLUTE
    attmdb_att_set_value                     0x00029b6d   Thumb Code     0  rom_symdef.txt ABSOLUTE
    attmdb_att_partial_value_update          0x00029b73   Thumb Code     0  rom_symdef.txt ABSOLUTE
    attmdb_att_get_value                     0x00029ba5   Thumb Code     0  rom_symdef.txt ABSOLUTE
    attmdb_att_get_uuid                      0x00029bc5   Thumb Code     0  rom_symdef.txt ABSOLUTE
    attmdb_att_set_permission                0x00029c29   Thumb Code     0  rom_symdef.txt ABSOLUTE
    attmdb_att_get_permission                0x00029c41   Thumb Code     0  rom_symdef.txt ABSOLUTE
    attmdb_att_update_perm                   0x00029c5b   Thumb Code     0  rom_symdef.txt ABSOLUTE
    attmdb_svc_set_permission                0x00029c7b   Thumb Code     0  rom_symdef.txt ABSOLUTE
    attmdb_svc_get_permission                0x00029c99   Thumb Code     0  rom_symdef.txt ABSOLUTE
    attmdb_init                              0x00029cb3   Thumb Code     0  rom_symdef.txt ABSOLUTE
    attm_svc_create_db                       0x00029f45   Thumb Code     0  rom_symdef.txt ABSOLUTE
    atts_clear_prep_data                     0x0002a03d   Thumb Code     0  rom_symdef.txt ABSOLUTE
    atts_cleanup                             0x0002a05b   Thumb Code     0  rom_symdef.txt ABSOLUTE
    atts_init                                0x0002a08f   Thumb Code     0  rom_symdef.txt ABSOLUTE
    atts_create                              0x0002a0cb   Thumb Code     0  rom_symdef.txt ABSOLUTE
    atts_con_enable                          0x0002a0ed   Thumb Code     0  rom_symdef.txt ABSOLUTE
    atts_update_elmt                         0x0002a0fb   Thumb Code     0  rom_symdef.txt ABSOLUTE
    atts_store_prep_data                     0x0002a149   Thumb Code     0  rom_symdef.txt ABSOLUTE
    TASK_ATTS_atts_rtx_ind_handler           0x0002a1dd   Thumb Code     0  rom_symdef.txt ABSOLUTE
    TASK_ATTS_atts_send_event_cmd_handler    0x0002a21f   Thumb Code     0  rom_symdef.txt ABSOLUTE
    TASK_ATTS_smpc_cmp_evt_handler           0x0002a21f   Thumb Code     0  rom_symdef.txt ABSOLUTE
    TASK_ATTS_smpc_sign_ind_handler          0x0002a2dd   Thumb Code     0  rom_symdef.txt ABSOLUTE
    TASK_ATTS_l2cc_data_send_rsp_handler     0x0002a41f   Thumb Code     0  rom_symdef.txt ABSOLUTE
    atts_find_uuid                           0x0002a451   Thumb Code     0  rom_symdef.txt ABSOLUTE
    atts_send_pdu                            0x0002a575   Thumb Code     0  rom_symdef.txt ABSOLUTE
    atts_allocate_pdu                        0x0002a57f   Thumb Code     0  rom_symdef.txt ABSOLUTE
    atts_mtu_exc_resp                        0x0002a5a1   Thumb Code     0  rom_symdef.txt ABSOLUTE
    atts_send_error                          0x0002a5d7   Thumb Code     0  rom_symdef.txt ABSOLUTE
    atts_find_info_resp                      0x0002a5e3   Thumb Code     0  rom_symdef.txt ABSOLUTE
    atts_get_att_chk_perm                    0x0002a719   Thumb Code     0  rom_symdef.txt ABSOLUTE
    atts_find_by_type_resp                   0x0002a887   Thumb Code     0  rom_symdef.txt ABSOLUTE
    atts_read_by_type_resp                   0x0002a9a7   Thumb Code     0  rom_symdef.txt ABSOLUTE
    atts_read_by_grp_type_resp               0x0002aa93   Thumb Code     0  rom_symdef.txt ABSOLUTE
    atts_read_resp                           0x0002ab95   Thumb Code     0  rom_symdef.txt ABSOLUTE
    atts_read_blob_resp                      0x0002abf9   Thumb Code     0  rom_symdef.txt ABSOLUTE
    atts_read_mult_resp                      0x0002ac69   Thumb Code     0  rom_symdef.txt ABSOLUTE
    atts_write_no_resp                       0x0002ad17   Thumb Code     0  rom_symdef.txt ABSOLUTE
    atts_write_resp                          0x0002ad77   Thumb Code     0  rom_symdef.txt ABSOLUTE
    atts_signed_write_resp                   0x0002adf1   Thumb Code     0  rom_symdef.txt ABSOLUTE
    atts_prepare_write_resp                  0x0002ae85   Thumb Code     0  rom_symdef.txt ABSOLUTE
    atts_execute_write_resp                  0x0002af11   Thumb Code     0  rom_symdef.txt ABSOLUTE
    atts_send_cmd_cmp                        0x0002afd5   Thumb Code     0  rom_symdef.txt ABSOLUTE
    atts_write_rsp_send                      0x0002aff3   Thumb Code     0  rom_symdef.txt ABSOLUTE
    gattc_cleanup                            0x0002b0a3   Thumb Code     0  rom_symdef.txt ABSOLUTE
    gattc_init                               0x0002b0cd   Thumb Code     0  rom_symdef.txt ABSOLUTE
    gattc_create                             0x0002b109   Thumb Code     0  rom_symdef.txt ABSOLUTE
    gattc_send_att_req                       0x0002b13b   Thumb Code     0  rom_symdef.txt ABSOLUTE
    gattc_allocate_att_req                   0x0002b145   Thumb Code     0  rom_symdef.txt ABSOLUTE
    gattc_send_execute                       0x0002b165   Thumb Code     0  rom_symdef.txt ABSOLUTE
    gattc_get_event_dest                     0x0002b179   Thumb Code     0  rom_symdef.txt ABSOLUTE
    gattc_init_operation                     0x0002b1b7   Thumb Code     0  rom_symdef.txt ABSOLUTE
    gattc_get_operation                      0x0002b1d1   Thumb Code     0  rom_symdef.txt ABSOLUTE
    gattc_send_complete_evt                  0x0002b1e5   Thumb Code     0  rom_symdef.txt ABSOLUTE
    gattc_get_mtu                            0x0002b2d3   Thumb Code     0  rom_symdef.txt ABSOLUTE
    gattc_set_mtu                            0x0002b2dd   Thumb Code     0  rom_symdef.txt ABSOLUTE
    gattm_svc_get_start_hdl                  0x0002c2e9   Thumb Code     0  rom_symdef.txt ABSOLUTE
    gattm_init                               0x0002c2ef   Thumb Code     0  rom_symdef.txt ABSOLUTE
    gattm_create                             0x0002c317   Thumb Code     0  rom_symdef.txt ABSOLUTE
    gattm_cleanup                            0x0002c31f   Thumb Code     0  rom_symdef.txt ABSOLUTE
    gattm_get_max_mtu                        0x0002c327   Thumb Code     0  rom_symdef.txt ABSOLUTE
    gattm_set_max_mtu                        0x0002c32d   Thumb Code     0  rom_symdef.txt ABSOLUTE
    l2cc_cleanup                             0x0002c479   Thumb Code     0  rom_symdef.txt ABSOLUTE
    l2cc_init                                0x0002c4a9   Thumb Code     0  rom_symdef.txt ABSOLUTE
    l2cc_create                              0x0002c4e5   Thumb Code     0  rom_symdef.txt ABSOLUTE
    l2cc_update_state                        0x0002c515   Thumb Code     0  rom_symdef.txt ABSOLUTE
    l2cm_init                                0x0002c759   Thumb Code     0  rom_symdef.txt ABSOLUTE
    l2cm_create                              0x0002c781   Thumb Code     0  rom_symdef.txt ABSOLUTE
    l2cm_cleanup                             0x0002c789   Thumb Code     0  rom_symdef.txt ABSOLUTE
    l2cm_set_link_layer_buff_size            0x0002c7a9   Thumb Code     0  rom_symdef.txt ABSOLUTE
    smpc_regs_push                           0x0002c7b9   Thumb Code     0  rom_symdef.txt ABSOLUTE
    smpc_regs_pop                            0x0002c7bb   Thumb Code     0  rom_symdef.txt ABSOLUTE
    smpc_clear_timeout_timer                 0x0002c7bd   Thumb Code     0  rom_symdef.txt ABSOLUTE
    smpc_cleanup                             0x0002c7e1   Thumb Code     0  rom_symdef.txt ABSOLUTE
    smpc_init                                0x0002c841   Thumb Code     0  rom_symdef.txt ABSOLUTE
    smpc_create                              0x0002c87d   Thumb Code     0  rom_symdef.txt ABSOLUTE
    smpc_init_operation                      0x0002c8ab   Thumb Code     0  rom_symdef.txt ABSOLUTE
    smpc_send_cmp_evt                        0x0002c8c1   Thumb Code     0  rom_symdef.txt ABSOLUTE
    smpc_send_use_enc_block_cmd              0x0002c935   Thumb Code     0  rom_symdef.txt ABSOLUTE
    smpc_send_start_enc_cmd                  0x0002c96d   Thumb Code     0  rom_symdef.txt ABSOLUTE
    smpc_send_ltk_req_rsp                    0x0002c9cb   Thumb Code     0  rom_symdef.txt ABSOLUTE
    smpc_send_pairing_ind                    0x0002cadb   Thumb Code     0  rom_symdef.txt ABSOLUTE
    smpc_launch_rep_att_timer                0x0002cb6f   Thumb Code     0  rom_symdef.txt ABSOLUTE
    smpc_check_repeated_attempts             0x0002cbbd   Thumb Code     0  rom_symdef.txt ABSOLUTE
    smpc_check_max_key_size                  0x0002cc01   Thumb Code     0  rom_symdef.txt ABSOLUTE
    smpc_check_key_distrib                   0x0002cc29   Thumb Code     0  rom_symdef.txt ABSOLUTE
    smpc_xor                                 0x0002cc7d   Thumb Code     0  rom_symdef.txt ABSOLUTE
    smpc_generate_l                          0x0002cc93   Thumb Code     0  rom_symdef.txt ABSOLUTE
    smpc_generate_ci                         0x0002ccdf   Thumb Code     0  rom_symdef.txt ABSOLUTE
    smpc_generate_rand                       0x0002cd4b   Thumb Code     0  rom_symdef.txt ABSOLUTE
    smpc_generate_e1                         0x0002cd6f   Thumb Code     0  rom_symdef.txt ABSOLUTE
    smpc_generate_cfm                        0x0002ce25   Thumb Code     0  rom_symdef.txt ABSOLUTE
    smpc_generate_stk                        0x0002cead   Thumb Code     0  rom_symdef.txt ABSOLUTE
    smpc_calc_subkeys                        0x0002cf01   Thumb Code     0  rom_symdef.txt ABSOLUTE
    smpc_pairing_end                         0x0002cf77   Thumb Code     0  rom_symdef.txt ABSOLUTE
    smpc_tkdp_rcp_continue                   0x0002d00b   Thumb Code     0  rom_symdef.txt ABSOLUTE
    smpc_tkdp_rcp_start                      0x0002d069   Thumb Code     0  rom_symdef.txt ABSOLUTE
    smpc_pdu_send                            0x0002d0ab   Thumb Code     0  rom_symdef.txt ABSOLUTE
    smpc_tkdp_send_start                     0x0002d11b   Thumb Code     0  rom_symdef.txt ABSOLUTE
    smpc_tkdp_send_continue                  0x0002d199   Thumb Code     0  rom_symdef.txt ABSOLUTE
    smpc_get_key_sec_prop                    0x0002d215   Thumb Code     0  rom_symdef.txt ABSOLUTE
    smpc_is_sec_mode_reached                 0x0002d28d   Thumb Code     0  rom_symdef.txt ABSOLUTE
    smpc_handle_enc_change_evt               0x0002d2b7   Thumb Code     0  rom_symdef.txt ABSOLUTE
    smpc_pdu_recv                            0x0002d35d   Thumb Code     0  rom_symdef.txt ABSOLUTE
    smpm_init                                0x0002de21   Thumb Code     0  rom_symdef.txt ABSOLUTE
    smpm_create                              0x0002de5b   Thumb Code     0  rom_symdef.txt ABSOLUTE
    smpm_cleanup                             0x0002de63   Thumb Code     0  rom_symdef.txt ABSOLUTE
    smpm_send_cmp_evt                        0x0002de6b   Thumb Code     0  rom_symdef.txt ABSOLUTE
    smpm_send_encrypt_req                    0x0002dea3   Thumb Code     0  rom_symdef.txt ABSOLUTE
    smpm_send_gen_rand_nb_req                0x0002ded1   Thumb Code     0  rom_symdef.txt ABSOLUTE
    smpm_check_addr_type                     0x0002dedf   Thumb Code     0  rom_symdef.txt ABSOLUTE
    gapc_init                                0x0002e269   Thumb Code     0  rom_symdef.txt ABSOLUTE
    gapc_con_create                          0x0002e2a5   Thumb Code     0  rom_symdef.txt ABSOLUTE
    gapc_con_cleanup                         0x0002e385   Thumb Code     0  rom_symdef.txt ABSOLUTE
    gapc_send_disconect_ind                  0x0002e395   Thumb Code     0  rom_symdef.txt ABSOLUTE
    gapc_get_conidx                          0x0002e3b7   Thumb Code     0  rom_symdef.txt ABSOLUTE
    gapc_get_conhdl                          0x0002e3e3   Thumb Code     0  rom_symdef.txt ABSOLUTE
    gapc_get_role                            0x0002e3f9   Thumb Code     0  rom_symdef.txt ABSOLUTE
    gapc_get_bdaddr                          0x0002e415   Thumb Code     0  rom_symdef.txt ABSOLUTE
    gapc_get_csrk                            0x0002e435   Thumb Code     0  rom_symdef.txt ABSOLUTE
    gapc_get_sign_counter                    0x0002e453   Thumb Code     0  rom_symdef.txt ABSOLUTE
    gapc_send_complete_evt                   0x0002e471   Thumb Code     0  rom_symdef.txt ABSOLUTE
    gapc_send_error_evt                      0x0002e4bd   Thumb Code     0  rom_symdef.txt ABSOLUTE
    gapc_is_sec_set                          0x0002e4df   Thumb Code     0  rom_symdef.txt ABSOLUTE
    gapc_get_enc_keysize                     0x0002e549   Thumb Code     0  rom_symdef.txt ABSOLUTE
    gapc_set_enc_keysize                     0x0002e561   Thumb Code     0  rom_symdef.txt ABSOLUTE
    gapc_link_encrypted                      0x0002e575   Thumb Code     0  rom_symdef.txt ABSOLUTE
    gapc_auth_set                            0x0002e58f   Thumb Code     0  rom_symdef.txt ABSOLUTE
    gapc_param_updata_sanity                 0x0002e67b   Thumb Code     0  rom_symdef.txt ABSOLUTE
    gapc_get_operation                       0x0002f461   Thumb Code     0  rom_symdef.txt ABSOLUTE
    gapm_init                                0x0002f4f3   Thumb Code     0  rom_symdef.txt ABSOLUTE
    gapm_host_init                           0x0002f547   Thumb Code     0  rom_symdef.txt ABSOLUTE
    gapm_get_operation                       0x0002f56d   Thumb Code     0  rom_symdef.txt ABSOLUTE
    gapm_send_complete_evt                   0x0002f57f   Thumb Code     0  rom_symdef.txt ABSOLUTE
    gapm_send_error_evt                      0x0002f5b5   Thumb Code     0  rom_symdef.txt ABSOLUTE
    gapm_con_create                          0x0002f5d3   Thumb Code     0  rom_symdef.txt ABSOLUTE
    gapm_con_enable                          0x0002f631   Thumb Code     0  rom_symdef.txt ABSOLUTE
    gapm_con_cleanup                         0x0002f63d   Thumb Code     0  rom_symdef.txt ABSOLUTE
    gapm_get_privacy_flag                    0x00030c7f   Thumb Code     0  rom_symdef.txt ABSOLUTE
    gapm_set_recon_addr                      0x00030cab   Thumb Code     0  rom_symdef.txt ABSOLUTE
    gapm_adv_op_sanity                       0x00030cef   Thumb Code     0  rom_symdef.txt ABSOLUTE
    gapm_set_adv_mode                        0x00030e75   Thumb Code     0  rom_symdef.txt ABSOLUTE
    gapm_execute_adv_op                      0x00030e8d   Thumb Code     0  rom_symdef.txt ABSOLUTE
    gapm_scan_op_sanity                      0x00030fdd   Thumb Code     0  rom_symdef.txt ABSOLUTE
    gapm_set_scan_mode                       0x000310b5   Thumb Code     0  rom_symdef.txt ABSOLUTE
    gapm_execute_scan_op                     0x000310d1   Thumb Code     0  rom_symdef.txt ABSOLUTE
    gapm_connect_op_sanity                   0x00031175   Thumb Code     0  rom_symdef.txt ABSOLUTE
    gapm_execute_connect_op                  0x000312b9   Thumb Code     0  rom_symdef.txt ABSOLUTE
    gapm_get_role                            0x0003142d   Thumb Code     0  rom_symdef.txt ABSOLUTE
    gapm_get_recon_addr                      0x00031433   Thumb Code     0  rom_symdef.txt ABSOLUTE
    gapm_set_privacy_flag                    0x00031473   Thumb Code     0  rom_symdef.txt ABSOLUTE
    gapm_get_ad_type_flag                    0x0003149f   Thumb Code     0  rom_symdef.txt ABSOLUTE
    gapm_add_to_filter                       0x000314c5   Thumb Code     0  rom_symdef.txt ABSOLUTE
    gapm_is_filtered                         0x00031529   Thumb Code     0  rom_symdef.txt ABSOLUTE
    gapm_update_air_op_state                 0x0003157f   Thumb Code     0  rom_symdef.txt ABSOLUTE
    gapm_get_irk                             0x00031635   Thumb Code     0  rom_symdef.txt ABSOLUTE
    gapm_get_bdaddr                          0x0003163b   Thumb Code     0  rom_symdef.txt ABSOLUTE
    l2cc_pdu_pack                            0x0003164d   Thumb Code     0  rom_symdef.txt ABSOLUTE
    l2cc_pdu_unpack                          0x000318f3   Thumb Code     0  rom_symdef.txt ABSOLUTE
    l2cc_detect_dest                         0x00031b2d   Thumb Code     0  rom_symdef.txt ABSOLUTE
    smpc_check_param                         0x00031b95   Thumb Code     0  rom_symdef.txt ABSOLUTE
    ke_init                                  0x0003200d   Thumb Code     0  rom_symdef.txt ABSOLUTE
    ke_flush                                 0x00032039   Thumb Code     0  rom_symdef.txt ABSOLUTE
    ke_sleep_check                           0x00032079   Thumb Code     0  rom_symdef.txt ABSOLUTE
    ke_event_init                            0x00032091   Thumb Code     0  rom_symdef.txt ABSOLUTE
    ke_event_callback_set                    0x0003209d   Thumb Code     0  rom_symdef.txt ABSOLUTE
    ke_event_set                             0x000320b1   Thumb Code     0  rom_symdef.txt ABSOLUTE
    ke_event_clear                           0x000320dd   Thumb Code     0  rom_symdef.txt ABSOLUTE
    ke_event_get                             0x00032109   Thumb Code     0  rom_symdef.txt ABSOLUTE
    ke_event_get_all                         0x0003212f   Thumb Code     0  rom_symdef.txt ABSOLUTE
    ke_event_flush                           0x00032135   Thumb Code     0  rom_symdef.txt ABSOLUTE
    ke_event_schedule                        0x0003213d   Thumb Code     0  rom_symdef.txt ABSOLUTE
    ke_mem_init                              0x0003218d   Thumb Code     0  rom_symdef.txt ABSOLUTE
    ke_mem_is_empty                          0x000321d7   Thumb Code     0  rom_symdef.txt ABSOLUTE
    ke_malloc                                0x00032215   Thumb Code     0  rom_symdef.txt ABSOLUTE
    ke_free                                  0x000322d7   Thumb Code     0  rom_symdef.txt ABSOLUTE
    ke_msg_alloc                             0x000323b1   Thumb Code     0  rom_symdef.txt ABSOLUTE
    ke_msg_send                              0x000323e1   Thumb Code     0  rom_symdef.txt ABSOLUTE
    ke_msg_send_basic                        0x0003240d   Thumb Code     0  rom_symdef.txt ABSOLUTE
    ke_msg_forward                           0x0003241b   Thumb Code     0  rom_symdef.txt ABSOLUTE
    ke_msg_forward_new_id                    0x00032425   Thumb Code     0  rom_symdef.txt ABSOLUTE
    ke_msg_free                              0x00032435   Thumb Code     0  rom_symdef.txt ABSOLUTE
    ke_queue_extract                         0x00032441   Thumb Code     0  rom_symdef.txt ABSOLUTE
    ke_queue_insert                          0x0003247f   Thumb Code     0  rom_symdef.txt ABSOLUTE
    ke_handler_search                        0x000324bf   Thumb Code     0  rom_symdef.txt ABSOLUTE
    ke_task_init                             0x0003256d   Thumb Code     0  rom_symdef.txt ABSOLUTE
    ke_task_create                           0x00032587   Thumb Code     0  rom_symdef.txt ABSOLUTE
    ke_task_delete                           0x000325e1   Thumb Code     0  rom_symdef.txt ABSOLUTE
    ke_state_set                             0x00032631   Thumb Code     0  rom_symdef.txt ABSOLUTE
    ke_state_get                             0x000326b3   Thumb Code     0  rom_symdef.txt ABSOLUTE
    ke_msg_discard                           0x000326e3   Thumb Code     0  rom_symdef.txt ABSOLUTE
    ke_msg_save                              0x000326e7   Thumb Code     0  rom_symdef.txt ABSOLUTE
    ke_task_handler_get                      0x000326eb   Thumb Code     0  rom_symdef.txt ABSOLUTE
    ke_timer_init                            0x00032813   Thumb Code     0  rom_symdef.txt ABSOLUTE
    ke_timer_init_func                       0x00032819   Thumb Code     0  rom_symdef.txt ABSOLUTE
    ke_timer_set                             0x00032825   Thumb Code     0  rom_symdef.txt ABSOLUTE
    ke_timer_clear                           0x000328a5   Thumb Code     0  rom_symdef.txt ABSOLUTE
    ke_timer_active                          0x000328fb   Thumb Code     0  rom_symdef.txt ABSOLUTE
    ke_timer_sleep_check                     0x00032921   Thumb Code     0  rom_symdef.txt ABSOLUTE
    ke_time                                  0x0003297d   Thumb Code     0  rom_symdef.txt ABSOLUTE
    nvds_get                                 0x000329d1   Thumb Code     0  rom_symdef.txt ABSOLUTE
    nvds_get_func                            0x000329d7   Thumb Code     0  rom_symdef.txt ABSOLUTE
    nvds_init                                0x00032bcf   Thumb Code     0  rom_symdef.txt ABSOLUTE
    rwble_hl_init                            0x00032be5   Thumb Code     0  rom_symdef.txt ABSOLUTE
    rwble_hl_send_message                    0x00032c0b   Thumb Code     0  rom_symdef.txt ABSOLUTE
    ble_regs_push                            0x00032c0d   Thumb Code     0  rom_symdef.txt ABSOLUTE
    ble_regs_pop                             0x00032c65   Thumb Code     0  rom_symdef.txt ABSOLUTE
    rf_init                                  0x00032cbd   Thumb Code     0  rom_symdef.txt ABSOLUTE
    rf_reinit                                0x00032cc3   Thumb Code     0  rom_symdef.txt ABSOLUTE
    rwip_init                                0x00032ccb   Thumb Code     0  rom_symdef.txt ABSOLUTE
    rwip_reset                               0x00032d8d   Thumb Code     0  rom_symdef.txt ABSOLUTE
    rwip_version                             0x00032db9   Thumb Code     0  rom_symdef.txt ABSOLUTE
    rwip_prevent_sleep_get                   0x00032dc1   Thumb Code     0  rom_symdef.txt ABSOLUTE
    rwip_schedule                            0x00032dc9   Thumb Code     0  rom_symdef.txt ABSOLUTE
    rwip_prevent_sleep_set                   0x00032eb7   Thumb Code     0  rom_symdef.txt ABSOLUTE
    rwip_wakeup                              0x00032edb   Thumb Code     0  rom_symdef.txt ABSOLUTE
    rwip_prevent_sleep_clear                 0x00032eed   Thumb Code     0  rom_symdef.txt ABSOLUTE
    rwip_wakeup_end                          0x00032f11   Thumb Code     0  rom_symdef.txt ABSOLUTE
    rwip_wakeup_delay_set                    0x00032f2f   Thumb Code     0  rom_symdef.txt ABSOLUTE
    rwip_sleep_enable                        0x00032f3f   Thumb Code     0  rom_symdef.txt ABSOLUTE
    rwip_ext_wakeup_enable                   0x00032f47   Thumb Code     0  rom_symdef.txt ABSOLUTE
    rwble_init                               0x00032f71   Thumb Code     0  rom_symdef.txt ABSOLUTE
    rwble_reset                              0x00032fd5   Thumb Code     0  rom_symdef.txt ABSOLUTE
    rwble_version                            0x00033003   Thumb Code     0  rom_symdef.txt ABSOLUTE
    rwble_get_clock                          0x0003302d   Thumb Code     0  rom_symdef.txt ABSOLUTE
    $Super$$BLE_FINETGTIM_Handler            0x00033105   Thumb Code     0  rom_symdef.txt ABSOLUTE
    BLE_GROSSTGTIM_Handler                   0x0003310d   Thumb Code     0  rom_symdef.txt ABSOLUTE
    $Super$$BLE_CSCNT_Handler                0x00033115   Thumb Code     0  rom_symdef.txt ABSOLUTE
    BLE_ERROR_Handler                        0x0003318d   Thumb Code     0  rom_symdef.txt ABSOLUTE
    BLE_CRYPT_Handler                        0x000331ad   Thumb Code     0  rom_symdef.txt ABSOLUTE
    func_check_mem                           0x000331eb   Thumb Code     0  rom_symdef.txt ABSOLUTE
    test_rxdone                              0x0003323d   Thumb Code     0  rom_symdef.txt ABSOLUTE
    prf_create                               0x000339fd   Thumb Code     0  rom_symdef.txt ABSOLUTE
    prf_init                                 0x00033a23   Thumb Code     0  rom_symdef.txt ABSOLUTE
    prf_cleanup                              0x00033a2b   Thumb Code     0  rom_symdef.txt ABSOLUTE
    __aeabi_uidiv                            0x00033aa7   Thumb Code     0  rom_symdef.txt ABSOLUTE
    __aeabi_uidivmod                         0x00033aa7   Thumb Code     0  rom_symdef.txt ABSOLUTE
    __aeabi_idiv                             0x00033ad3   Thumb Code     0  rom_symdef.txt ABSOLUTE
    __aeabi_idivmod                          0x00033ad3   Thumb Code     0  rom_symdef.txt ABSOLUTE
    rand                                     0x00033afd   Thumb Code     0  rom_symdef.txt ABSOLUTE
    srand                                    0x00033b0f   Thumb Code     0  rom_symdef.txt ABSOLUTE
    __aeabi_memcpy                           0x00033b21   Thumb Code     0  rom_symdef.txt ABSOLUTE
    __aeabi_memcpy4                          0x00033b21   Thumb Code     0  rom_symdef.txt ABSOLUTE
    __aeabi_memcpy8                          0x00033b21   Thumb Code     0  rom_symdef.txt ABSOLUTE
    __aeabi_memset                           0x00033b45   Thumb Code     0  rom_symdef.txt ABSOLUTE
    __aeabi_memset4                          0x00033b45   Thumb Code     0  rom_symdef.txt ABSOLUTE
    __aeabi_memset8                          0x00033b45   Thumb Code     0  rom_symdef.txt ABSOLUTE
    __aeabi_memclr                           0x00033b53   Thumb Code     0  rom_symdef.txt ABSOLUTE
    __aeabi_memclr4                          0x00033b53   Thumb Code     0  rom_symdef.txt ABSOLUTE
    __aeabi_memclr8                          0x00033b53   Thumb Code     0  rom_symdef.txt ABSOLUTE
    _memset$wrapper                          0x00033b57   Thumb Code     0  rom_symdef.txt ABSOLUTE
    strlen                                   0x00033b69   Thumb Code     0  rom_symdef.txt ABSOLUTE
    memcmp                                   0x00033b77   Thumb Code     0  rom_symdef.txt ABSOLUTE
    __aeabi_dmul                             0x00033b91   Thumb Code     0  rom_symdef.txt ABSOLUTE
    __aeabi_i2d                              0x00033c61   Thumb Code     0  rom_symdef.txt ABSOLUTE
    __aeabi_ui2d                             0x00033c89   Thumb Code     0  rom_symdef.txt ABSOLUTE
    __aeabi_cdcmpeq                          0x00033ca5   Thumb Code     0  rom_symdef.txt ABSOLUTE
    __aeabi_cdcmple                          0x00033ca5   Thumb Code     0  rom_symdef.txt ABSOLUTE
    __I$use$fp                               0x00033ccd   Thumb Code     0  rom_symdef.txt ABSOLUTE
    _double_round                            0x00033ccd   Thumb Code     0  rom_symdef.txt ABSOLUTE
    _double_epilogue                         0x00033ce7   Thumb Code     0  rom_symdef.txt ABSOLUTE
    __aeabi_llsl                             0x00033d8d   Thumb Code     0  rom_symdef.txt ABSOLUTE
    _ll_shift_l                              0x00033d8d   Thumb Code     0  rom_symdef.txt ABSOLUTE
    __aeabi_llsr                             0x00033dad   Thumb Code     0  rom_symdef.txt ABSOLUTE
    _ll_ushift_r                             0x00033dad   Thumb Code     0  rom_symdef.txt ABSOLUTE
    __ARM_clz                                0x00033dcf   Thumb Code     0  rom_symdef.txt ABSOLUTE
    __ARM_common_switch8                     0x00033dfd   Thumb Code     0  rom_symdef.txt ABSOLUTE
    uart_api                                 0x00033e18   Data           0  rom_symdef.txt ABSOLUTE
    co_sca2ppm                               0x00033e28   Data           0  rom_symdef.txt ABSOLUTE
    co_null_bdaddr                           0x00033e38   Data           0  rom_symdef.txt ABSOLUTE
    co_default_bdaddr                        0x00033e3e   Data           0  rom_symdef.txt ABSOLUTE
    dbg_default_handler                      0x00033f14   Data           0  rom_symdef.txt ABSOLUTE
    llc_default_state                        0x00033fac   Data           0  rom_symdef.txt ABSOLUTE
    llc_state_handler                        0x000340dc   Data           0  rom_symdef.txt ABSOLUTE
    llc_default_handler                      0x0003418c   Data           0  rom_symdef.txt ABSOLUTE
    llm_local_cmds                           0x000341bc   Data           0  rom_symdef.txt ABSOLUTE
    llm_local_le_feats                       0x000341fc   Data           0  rom_symdef.txt ABSOLUTE
    llm_local_le_states                      0x00034204   Data           0  rom_symdef.txt ABSOLUTE
    llm_default_state                        0x00034224   Data           0  rom_symdef.txt ABSOLUTE
    llm_state_handler                        0x00034354   Data           0  rom_symdef.txt ABSOLUTE
    llm_default_handler                      0x00034384   Data           0  rom_symdef.txt ABSOLUTE
    LLM_AA_CT1                               0x0003438c   Data           0  rom_symdef.txt ABSOLUTE
    LLM_AA_CT2                               0x0003438f   Data           0  rom_symdef.txt ABSOLUTE
    gtl_default_state                        0x000343a4   Data           0  rom_symdef.txt ABSOLUTE
    gtl_default_handler                      0x000343bc   Data           0  rom_symdef.txt ABSOLUTE
    attc_default_state                       0x000343d8   Data           0  rom_symdef.txt ABSOLUTE
    attc_state_handler                       0x000343f8   Data           0  rom_symdef.txt ABSOLUTE
    attc_default_handler                     0x00034410   Data           0  rom_symdef.txt ABSOLUTE
    attm_default_state                       0x00034428   Data           0  rom_symdef.txt ABSOLUTE
    attm_state_handler                       0x00034480   Data           0  rom_symdef.txt ABSOLUTE
    attm_default_handler                     0x00034488   Data           0  rom_symdef.txt ABSOLUTE
    atts_default_state                       0x000344a0   Data           0  rom_symdef.txt ABSOLUTE
    atts_state_handler                       0x000344d0   Data           0  rom_symdef.txt ABSOLUTE
    atts_default_handler                     0x000344f8   Data           0  rom_symdef.txt ABSOLUTE
    gattc_default_state                      0x00034510   Data           0  rom_symdef.txt ABSOLUTE
    gattc_state_handler                      0x00034598   Data           0  rom_symdef.txt ABSOLUTE
    gattc_default_handler                    0x000345b0   Data           0  rom_symdef.txt ABSOLUTE
    gattm_default_state                      0x00034604   Data           0  rom_symdef.txt ABSOLUTE
    gattm_state_handler                      0x00034614   Data           0  rom_symdef.txt ABSOLUTE
    gattm_default_handler                    0x00034624   Data           0  rom_symdef.txt ABSOLUTE
    l2cc_default_state                       0x0003463c   Data           0  rom_symdef.txt ABSOLUTE
    l2cc_state_handler                       0x00034654   Data           0  rom_symdef.txt ABSOLUTE
    l2cc_default_handler                     0x0003466c   Data           0  rom_symdef.txt ABSOLUTE
    l2cm_default_state                       0x00034684   Data           0  rom_symdef.txt ABSOLUTE
    l2cm_state_handler                       0x0003468c   Data           0  rom_symdef.txt ABSOLUTE
    l2cm_default_handler                     0x00034694   Data           0  rom_symdef.txt ABSOLUTE
    smpc_default_state                       0x000346c8   Data           0  rom_symdef.txt ABSOLUTE
    smpc_state_handler                       0x00034760   Data           0  rom_symdef.txt ABSOLUTE
    smpc_default_handler                     0x00034780   Data           0  rom_symdef.txt ABSOLUTE
    smpm_default_state                       0x00034798   Data           0  rom_symdef.txt ABSOLUTE
    smpm_state_handler                       0x000347d0   Data           0  rom_symdef.txt ABSOLUTE
    smpm_default_handler                     0x000347e0   Data           0  rom_symdef.txt ABSOLUTE
    gapc_default_state                       0x000347f8   Data           0  rom_symdef.txt ABSOLUTE
    gapc_state_handler                       0x00034910   Data           0  rom_symdef.txt ABSOLUTE
    gapc_default_handler                     0x00034928   Data           0  rom_symdef.txt ABSOLUTE
    gapm_default_state                       0x000349ec   Data           0  rom_symdef.txt ABSOLUTE
    gapm_state_handler                       0x00034b94   Data           0  rom_symdef.txt ABSOLUTE
    gapm_default_handler                     0x00034bbc   Data           0  rom_symdef.txt ABSOLUTE
    smpc_construct_pdu                       0x00034ce8   Data           0  rom_symdef.txt ABSOLUTE
    smpc_recv_pdu                            0x00034d18   Data           0  rom_symdef.txt ABSOLUTE
    dummy                                    0x00080000   Data           0  rom_symdef.txt ABSOLUTE
    sleep_env                                0x00080254   Data           0  rom_symdef.txt ABSOLUTE
    iq_trim_bias_ctrl1_reg                   0x00080256   Data           0  rom_symdef.txt ABSOLUTE
    co_buf_env                               0x00080258   Data           0  rom_symdef.txt ABSOLUTE
    dbg_state                                0x00080348   Data           0  rom_symdef.txt ABSOLUTE
    iq_trim_rf_mixer_ctrl1_reg               0x0008034a   Data           0  rom_symdef.txt ABSOLUTE
    llc_env                                  0x0008034c   Data           0  rom_symdef.txt ABSOLUTE
    llc_state                                0x00080364   Data           0  rom_symdef.txt ABSOLUTE
    ret_winsize_var                          0x0008036a   Data           0  rom_symdef.txt ABSOLUTE
    lld_evt_env                              0x0008036c   Data           0  rom_symdef.txt ABSOLUTE
    lld_sleep_env                            0x0008038c   Data           0  rom_symdef.txt ABSOLUTE
    llm_le_env                               0x00080390   Data           0  rom_symdef.txt ABSOLUTE
    llm_le_env_lpus                          0x000803e4   Data           0  rom_symdef.txt ABSOLUTE
    llm_bt_env                               0x0008042a   Data           0  rom_symdef.txt ABSOLUTE
    llm_state                                0x00080432   Data           0  rom_symdef.txt ABSOLUTE
    uart_env                                 0x00080434   Data           0  rom_symdef.txt ABSOLUTE
    vcocal_ctrl_reg_val                      0x00080452   Data           0  rom_symdef.txt ABSOLUTE
    last_temp_count                          0x00080478   Data           0  rom_symdef.txt ABSOLUTE
    last_temp_time                           0x0008047c   Data           0  rom_symdef.txt ABSOLUTE
    gtl_env                                  0x00080480   Data           0  rom_symdef.txt ABSOLUTE
    gtl_state                                0x000804a4   Data           0  rom_symdef.txt ABSOLUTE
    attc_state                               0x000804a5   Data           0  rom_symdef.txt ABSOLUTE
    attm_env                                 0x000804ac   Data           0  rom_symdef.txt ABSOLUTE
    attm_state                               0x000804b4   Data           0  rom_symdef.txt ABSOLUTE
    atts_env                                 0x000804b8   Data           0  rom_symdef.txt ABSOLUTE
    atts_state                               0x000804d0   Data           0  rom_symdef.txt ABSOLUTE
    gattc_env                                0x000804d8   Data           0  rom_symdef.txt ABSOLUTE
    gattc_state                              0x000804f0   Data           0  rom_symdef.txt ABSOLUTE
    gattm_env                                0x000804f6   Data           0  rom_symdef.txt ABSOLUTE
    gattm_state                              0x000804fc   Data           0  rom_symdef.txt ABSOLUTE
    l2cc_env                                 0x00080500   Data           0  rom_symdef.txt ABSOLUTE
    l2cc_state                               0x00080518   Data           0  rom_symdef.txt ABSOLUTE
    l2cm_env                                 0x0008051e   Data           0  rom_symdef.txt ABSOLUTE
    l2cm_state                               0x00080524   Data           0  rom_symdef.txt ABSOLUTE
    smpc_env                                 0x00080528   Data           0  rom_symdef.txt ABSOLUTE
    smpc_state                               0x00080540   Data           0  rom_symdef.txt ABSOLUTE
    smpm_env                                 0x00080548   Data           0  rom_symdef.txt ABSOLUTE
    smpm_state                               0x00080550   Data           0  rom_symdef.txt ABSOLUTE
    gapc_env                                 0x00080554   Data           0  rom_symdef.txt ABSOLUTE
    gapc_state                               0x0008056c   Data           0  rom_symdef.txt ABSOLUTE
    gap_cfg_table                            0x00080574   Data           0  rom_symdef.txt ABSOLUTE
    gapm_env                                 0x00080578   Data           0  rom_symdef.txt ABSOLUTE
    gapm_state                               0x000805a4   Data           0  rom_symdef.txt ABSOLUTE
    ke_env                                   0x000805a8   Data           0  rom_symdef.txt ABSOLUTE
    ke_task_env                              0x00080604   Data           0  rom_symdef.txt ABSOLUTE
    nvds_data_ptr                            0x000806c0   Data           0  rom_symdef.txt ABSOLUTE
    func_check_mem_flag                      0x000806c4   Data           0  rom_symdef.txt ABSOLUTE
    ke_mem_heaps_used                        0x000806c5   Data           0  rom_symdef.txt ABSOLUTE
    rwip_env                                 0x000806c6   Data           0  rom_symdef.txt ABSOLUTE
    ble_reg_save                             0x000806cc   Data           0  rom_symdef.txt ABSOLUTE
    rwip_rf                                  0x0008071c   Data           0  rom_symdef.txt ABSOLUTE
    rwip_heap_db_ret                         0x00080768   Data        1036  jump_table.o(heap_db_area)
    rwip_heap_env_ret                        0x00080b74   Data         340  jump_table.o(heap_env_area)
    rwip_heap_msg_ret                        0x00080cc8   Data        1324  jump_table.o(heap_msg_area)
    descript                                 0x00082a20   Data        1502  arch_main.o(BLE_exchange_memory)
    __Vectors                                0x20000000   Data           4  boot_vectors.o(RESET)
    __Vectors_End                            0x200000a0   Data           0  boot_vectors.o(RESET)
    jump_table_base                          0x20000160   Data         352  jump_table.o(jump_table_mem_area)
    gap_timeout_table                        0x200002c0   Data         100  gapm.o(timeout_table_area)
    nvds_data_storage                        0x20000340   Data         164  nvds.o(nvds_data_storage_area)
    __main                                   0x20000441   Thumb Code     0  entry.o(.ARM.Collect$$$$00000000)
    _main_stk                                0x20000441   Thumb Code     0  entry2.o(.ARM.Collect$$$$00000001)
    _main_scatterload                        0x20000445   Thumb Code     0  entry5.o(.ARM.Collect$$$$00000004)
    __main_after_scatterload                 0x20000449   Thumb Code     0  entry5.o(.ARM.Collect$$$$00000004)
    _main_clock                              0x20000449   Thumb Code     0  entry7b.o(.ARM.Collect$$$$00000008)
    _main_cpp_init                           0x20000449   Thumb Code     0  entry8b.o(.ARM.Collect$$$$0000000A)
    _main_init                               0x20000449   Thumb Code     0  entry9a.o(.ARM.Collect$$$$0000000B)
    __rt_final_cpp                           0x20000451   Thumb Code     0  entry10a.o(.ARM.Collect$$$$0000000D)
    __rt_final_exit                          0x20000451   Thumb Code     0  entry11a.o(.ARM.Collect$$$$0000000F)
    SystemInit                               0x20000455   Thumb Code    62  system_armcm0.o(.text)
    Reset_Handler                            0x200004a5   Thumb Code     8  boot_vectors.o(.text)
    PendSV_Handler                           0x200004f5   Thumb Code     2  boot_vectors.o(.text)
    SysTick_Handler                          0x200004f7   Thumb Code     2  boot_vectors.o(.text)
    ADC_Handler                              0x200004f9   Thumb Code     0  boot_vectors.o(.text)
    I2C_Handler                              0x200004f9   Thumb Code     0  boot_vectors.o(.text)
    KEYBRD_Handler                           0x200004f9   Thumb Code     0  boot_vectors.o(.text)
    RFCAL_Handler                            0x200004f9   Thumb Code     0  boot_vectors.o(.text)
    SPI_Handler                              0x200004f9   Thumb Code     0  boot_vectors.o(.text)
    HardFault_HandlerC                       0x20000511   Thumb Code    14  hardfault_handler.o(.text)
    NMI_HandlerC                             0x20000529   Thumb Code    50  nmi_handler.o(.text)
    custom_nvds_get_func                     0x20000561   Thumb Code   110  nvds.o(.text)
    nvds_read_bdaddr_from_otp                0x200005cf   Thumb Code    52  nvds.o(.text)
    DataConversion                           0x2000065b   Thumb Code   148  arch_main.o(.text)
    main_func                                0x200006ef   Thumb Code   598  arch_main.o(.text)
    dummyf                                   0x200009a1   Thumb Code     2  jump_table.o(.text)
    arch_disable_sleep                       0x200009a5   Thumb Code    26  arch_sleep.o(.text)
    arch_set_extended_sleep                  0x200009bf   Thumb Code    26  arch_sleep.o(.text)
    arch_set_deep_sleep                      0x200009d9   Thumb Code    28  arch_sleep.o(.text)
    arch_set_sleep_mode                      0x200009f5   Thumb Code    20  arch_sleep.o(.text)
    arch_ble_ext_wakeup_get                  0x20000a09   Thumb Code     6  arch_sleep.o(.text)
    arch_ble_force_wakeup                    0x20000a0f   Thumb Code    54  arch_sleep.o(.text)
    select_lp_clk                            0x20000a55   Thumb Code     8  arch_system.o(.text)
    set_sleep_delay                          0x20000a5d   Thumb Code    10  arch_system.o(.text)
    get_rc16m_count_func                     0x20000a67   Thumb Code    28  arch_system.o(.text)
    conditionally_run_radio_cals             0x20000a83   Thumb Code   130  arch_system.o(.text)
    lld_sleep_us_2_lpcycles_sel_func         0x20000b05   Thumb Code    12  arch_system.o(.text)
    lld_sleep_lpcycles_2_us_sel_func         0x20000b11   Thumb Code    12  arch_system.o(.text)
    uart_flow_off_func                       0x20000b31   Thumb Code    72  arch_system.o(.text)
    init_rand_seed_from_trng                 0x20000b79   Thumb Code    20  arch_system.o(.text)
    check_sys_startup_period                 0x20000b8d   Thumb Code    46  arch_system.o(.text)
    app_use_lower_clocks_check               0x20000bbb   Thumb Code     4  arch_system.o(.text)
    lld_sleep_init_func                      0x20000bbf   Thumb Code    26  arch_system.o(.text)
    system_init                              0x20000bd9   Thumb Code   374  arch_system.o(.text)
    wrap_platform_reset                      0x20000d4f   Thumb Code     8  arch_system.o(.text)
    patch_llm_task                           0x20000e53   Thumb Code    40  arch_patch.o(.text)
    gapc_con_create_patch                    0x20000eb5   Thumb Code   176  arch_patch.o(.text)
    SVC_Handler_c                            0x20000f65   Thumb Code    22  arch_patch.o(.text)
    patch_func                               0x20000f7b   Thumb Code    40  arch_patch.o(.text)
    patch_atts_task                          0x200010c7   Thumb Code    36  atts_task.obj(.text)
    dg_atts_read_cfm                         0x200010fd   Thumb Code    82  atts_util.obj(.text)
    atts_read_resp_patch                     0x2000114f   Thumb Code   102  atts_util.obj(.text)
    my_llc_con_update_req_ind                0x200011bd   Thumb Code   100  ch_map.obj(.text)
    my_llc_ch_map_req_ind                    0x20001221   Thumb Code    84  ch_map.obj(.text)
    patched_gapm_adv_op_sanity               0x20001281   Thumb Code   208  gapm_util.obj(.text)
    ke_task_init_func                        0x200014ad   Thumb Code    20  ke_task.obj(.text)
    my_smpc_check_param                      0x200014d1   Thumb Code   122  smpc.obj(.text)
    smpc_send_pairing_req_ind                0x2000154b   Thumb Code   190  smpc.obj(.text)
    smpc_check_pairing_feat                  0x20001609   Thumb Code    26  smpc.obj(.text)
    smpc_pairing_cfm_handler                 0x2000162d   Thumb Code   528  smpc_task.obj(.text)
    my_llc_enc_rsp_pdu_send                  0x20001841   Thumb Code   164  llc.obj(.text)
    my_llc_enc_req_ind                       0x200018e5   Thumb Code   164  llc.obj(.text)
    my_llcp_con_up_req_handler               0x20001a33   Thumb Code    86  llc.obj(.text)
    my_llc_start_enc_rsp_ind                 0x20001b3d   Thumb Code   158  llc.obj(.text)
    patch_llc_task                           0x20001ce5   Thumb Code    36  llc.obj(.text)
    patch_gapc_task                          0x20001e37   Thumb Code    38  gapc_task.obj(.text)
    patched_llc_con_update_ind               0x20001e75   Thumb Code   134  llc_con_update_ind.obj(.text)
    syscntl_use_lowest_amba_clocks           0x20001f05   Thumb Code    22  syscntl.o(.text)
    syscntl_use_highest_amba_clocks          0x20001f1b   Thumb Code    22  syscntl.o(.text)
    GPIO_init                                0x20001f53   Thumb Code     2  gpio.o(.text)
    GPIO_SetPinFunction                      0x20001f55   Thumb Code    26  gpio.o(.text)
    GPIO_SetInactive                         0x20001f6f   Thumb Code    20  gpio.o(.text)
    GPIO_SetActive                           0x20001f83   Thumb Code    20  gpio.o(.text)
    GPIO_ConfigurePin                        0x20001f97   Thumb Code    44  gpio.o(.text)
    GPIO_GetPinStatus                        0x20001fc3   Thumb Code    26  gpio.o(.text)
    GPIO_EnableIRQ                           0x20001fdd   Thumb Code   222  gpio.o(.text)
    GPIO_ResetIRQ                            0x200020bb   Thumb Code    30  gpio.o(.text)
    GPIO_RegisterCallback                    0x200020d9   Thumb Code    14  gpio.o(.text)
    GPIOn_Handler                            0x200020e7   Thumb Code    46  gpio.o(.text)
    GPIO0_Handler                            0x20002115   Thumb Code     4  gpio.o(.text)
    GPIO1_Handler                            0x20002119   Thumb Code     4  gpio.o(.text)
    GPIO2_Handler                            0x2000211d   Thumb Code     4  gpio.o(.text)
    GPIO3_Handler                            0x20002121   Thumb Code     4  gpio.o(.text)
    GPIO4_Handler                            0x20002125   Thumb Code     4  gpio.o(.text)
    WKUP_QUADEC_Handler                      0x20002149   Thumb Code   106  wkupct_quadec.o(.text)
    batt_cal_cr2032                          0x200021c1   Thumb Code   112  battery.o(.text)
    battery_get_lvl                          0x20002231   Thumb Code    42  battery.o(.text)
    adc_init                                 0x2000226d   Thumb Code    28  adc.o(.text)
    adc_enable_channel                       0x20002289   Thumb Code    20  adc.o(.text)
    adc_disable                              0x2000229d   Thumb Code     8  adc.o(.text)
    adc_get_sample                           0x200022a5   Thumb Code    32  adc.o(.text)
    adc_usDelay                              0x200022c5   Thumb Code    36  adc.o(.text)
    adc_get_vbat_sample                      0x200022e9   Thumb Code    68  adc.o(.text)
    adc_calibrate                            0x2000232d   Thumb Code    70  adc.o(.text)
    rfpt_init                                0x20002385   Thumb Code    80  trng.o(.text)
    trng_init                                0x200023d5   Thumb Code    98  trng.o(.text)
    trng_get_raw_data                        0x20002437   Thumb Code    18  trng.o(.text)
    trng_acquire                             0x20002449   Thumb Code   246  trng.o(.text)
    spi_flash_init                           0x20002565   Thumb Code     8  spi_flash.o(.text)
    spi_flash_read_status_reg                0x2000256d   Thumb Code    20  spi_flash.o(.text)
    spi_flash_wait_till_ready                0x20002581   Thumb Code    30  spi_flash.o(.text)
    spi_flash_set_write_enable               0x2000259f   Thumb Code    60  spi_flash.o(.text)
    spi_flash_read_data                      0x200025db   Thumb Code    88  spi_flash.o(.text)
    spi_flash_page_program                   0x20002633   Thumb Code    92  spi_flash.o(.text)
    spi_flash_block_erase                    0x2000268f   Thumb Code    40  spi_flash.o(.text)
    spi_read_flash_memory_man_and_dev_id     0x200026b7   Thumb Code    52  spi_flash.o(.text)
    spi_flash_write_data                     0x200026eb   Thumb Code   114  spi_flash.o(.text)
    spi_cs_low                               0x20002765   Thumb Code    22  spi.o(.text)
    spi_cs_high                              0x2000277b   Thumb Code    14  spi.o(.text)
    lcd_cs_low                               0x20002789   Thumb Code    22  spi.o(.text)
    lcd_cs_high                              0x2000279f   Thumb Code    12  spi.o(.text)
    spi_init                                 0x200027ab   Thumb Code   142  spi.o(.text)
    spi_set_bitmode                          0x20002839   Thumb Code    34  spi.o(.text)
    spi_release                              0x2000285b   Thumb Code    38  spi.o(.text)
    spi_access                               0x20002881   Thumb Code    48  spi.o(.text)
    spi_transaction                          0x200028b1   Thumb Code    24  spi.o(.text)
    i2c_eeprom_init                          0x200028d1   Thumb Code    76  i2c_eeprom.o(.text)
    i2c_eeprom_release                       0x2000291d   Thumb Code    20  i2c_eeprom.o(.text)
    i2c_wait_until_eeprom_ready              0x20002931   Thumb Code    56  i2c_eeprom.o(.text)
    i2c_eeprom_read_byte                     0x200029ad   Thumb Code    88  i2c_eeprom.o(.text)
    i2c_eeprom_read_data                     0x20002a75   Thumb Code    90  i2c_eeprom.o(.text)
    i2c_eeprom_write_byte                    0x20002acf   Thumb Code    74  i2c_eeprom.o(.text)
    i2c_eeprom_write_page                    0x20002b19   Thumb Code   130  i2c_eeprom.o(.text)
    i2c_eeprom_write_data                    0x20002b9b   Thumb Code    82  i2c_eeprom.o(.text)
    uart2_init                               0x20002c73   Thumb Code    92  uart2.o(.text)
    uart2_finish_transfers                   0x20002ccf   Thumb Code    28  uart2.o(.text)
    uart2_write                              0x20002ceb   Thumb Code    34  uart2.o(.text)
    UART2_Handler                            0x20002d0d   Thumb Code   318  uart2.o(.text)
    timer0_init                              0x20002e81   Thumb Code    64  pwm.o(.text)
    timer0_enable_irq                        0x20002ec1   Thumb Code    10  pwm.o(.text)
    SWTIM_Handler                            0x20002ecb   Thumb Code    12  pwm.o(.text)
    iq_trim_from_otp                         0x20002ee9   Thumb Code    58  rf_580.o(.text)
    rf_reg_rd                                0x20002f23   Thumb Code     4  rf_580.o(.text)
    rf_reg_wr                                0x20002f27   Thumb Code     2  rf_580.o(.text)
    rf_reset                                 0x20002f29   Thumb Code     2  rf_580.o(.text)
    rf_force_agc_enable                      0x20002f2b   Thumb Code     2  rf_580.o(.text)
    rf_txpwr_dbm_get                         0x20002f2d   Thumb Code     4  rf_580.o(.text)
    rf_nfm_is_enabled                        0x20002f41   Thumb Code     6  rf_580.o(.text)
    rf_regs                                  0x20002f47   Thumb Code   206  rf_580.o(.text)
    rf_init_func                             0x20003019   Thumb Code   136  rf_580.o(.text)
    rf_reinit_func                           0x200030a1   Thumb Code   106  rf_580.o(.text)
    lld_sleep_compensate_func_patched        0x200031e9   Thumb Code    48  rwble.o(.text)
    skip_slave_latency_patch                 0x20003219   Thumb Code   336  rwble.o(.text)
    power_up                                 0x20003369   Thumb Code    70  rwble.o(.text)
    BLE_WAKEUP_LP_Handler                    0x200033af   Thumb Code    98  rwble.o(.text)
    BLE_SLP_Handler                          0x20003411   Thumb Code   104  rwble.o(.text)
    BLE_CSCNT_Handler                        0x20003487   Thumb Code    18  rwble.o(.text)
    BLE_FINETGTIM_Handler                    0x20003499   Thumb Code    14  rwble.o(.text)
    BLE_RX_Handler                           0x200034a7   Thumb Code    14  rwble.o(.text)
    BLE_EVENT_Handler                        0x200034b5   Thumb Code    64  rwble.o(.text)
    BLE_RF_DIAG_Handler                      0x200034f5   Thumb Code    80  rwble.o(.text)
    rwip_sleep                               0x200035bf   Thumb Code   392  rwip.o(.text)
    diss_init                                0x20003771   Thumb Code    28  diss.o(.text)
    diss_compute_cfg_flag                    0x2000378d   Thumb Code    40  diss.o(.text)
    diss_check_val_len                       0x200037b5   Thumb Code    48  diss.o(.text)
    diss_disable                             0x200037e5   Thumb Code    42  diss.o(.text)
    prf_server_error_ind_send                0x2000392d   Thumb Code    42  prf_utils.o(.text)
    prf_server_send_event                    0x20003957   Thumb Code    42  prf_utils.o(.text)
    prf_init_func                            0x200039b7   Thumb Code    70  prf_utils.o(.text)
    prf_cleanup_func                         0x200039fd   Thumb Code   102  prf_utils.o(.text)
    custs1_init                              0x20003a71   Thumb Code    28  custs1.o(.text)
    custs1_disable                           0x20003a8d   Thumb Code    42  custs1.o(.text)
    get_cfg_handle                           0x200041b1   Thumb Code    70  custom_common.o(.text)
    spotar_init                              0x20004201   Thumb Code    32  spotar.o(.text)
    spotar_disable                           0x20004221   Thumb Code    42  spotar.o(.text)
    default_app_on_init                      0x200046e9   Thumb Code    22  app_default_handlers.o(.text)
    default_app_on_connection                0x200046ff   Thumb Code    30  app_default_handlers.o(.text)
    default_app_on_set_dev_config_complete   0x2000471d   Thumb Code    16  app_default_handlers.o(.text)
    default_app_on_db_init_complete          0x2000472d   Thumb Code     8  app_default_handlers.o(.text)
    app_prf_enable                           0x20004763   Thumb Code   186  app.o(.text)
    app_easy_gap_advertise_stop              0x20004ac3   Thumb Code    24  app.o(.text)
    app_init                                 0x20004adb   Thumb Code    50  app.o(.text)
    app_easy_gap_disconnect                  0x20004b0d   Thumb Code   106  app.o(.text)
    app_easy_gap_confirm                     0x20004b77   Thumb Code    38  app.o(.text)
    app_easy_gap_undirected_advertise_get_active 0x20004b9d   Thumb Code     2  app.o(.text)
    app_easy_gap_undirected_advertise_start  0x20004b9f   Thumb Code    26  app.o(.text)
    app_easy_gap_param_update_start          0x20004bb9   Thumb Code    32  app.o(.text)
    app_db_init_start                        0x20004bd9   Thumb Code    16  app.o(.text)
    app_db_init                              0x20004be9   Thumb Code     2  app.o(.text)
    app_easy_gap_dev_configure               0x20004beb   Thumb Code    18  app.o(.text)
    get_user_prf_srv_perm                    0x20004bfd   Thumb Code    32  app.o(.text)
    prf_init_srv_perm                        0x20004c1d   Thumb Code    30  app.o(.text)
    app_gap_process_handler                  0x20004db9   Thumb Code    32  app_task.o(.text)
    app_dis_init                             0x20004de9   Thumb Code     2  app_diss.o(.text)
    app_diss_create_db                       0x20004deb   Thumb Code    26  app_diss.o(.text)
    app_diss_enable                          0x20004e05   Thumb Code    40  app_diss.o(.text)
    app_diss_process_handler                 0x20004f57   Thumb Code    32  app_diss_task.o(.text)
    app_spotar_init                          0x20004fb1   Thumb Code    24  app_spotar.o(.text)
    app_spotar_reset                         0x20004fc9   Thumb Code    12  app_spotar.o(.text)
    app_spotar_create_db                     0x20004fd5   Thumb Code    24  app_spotar.o(.text)
    app_spotar_enable                        0x20004fed   Thumb Code    46  app_spotar.o(.text)
    spotar_send_status_update_req            0x2000501b   Thumb Code    32  app_spotar.o(.text)
    app_spotar_stop                          0x2000503b   Thumb Code    36  app_spotar.o(.text)
    app_spotar_i2c_config                    0x2000505f   Thumb Code    70  app_spotar.o(.text)
    app_spi_flash_init                       0x200050a5   Thumb Code    70  app_spotar.o(.text)
    app_spotar_spi_config                    0x200050eb   Thumb Code   130  app_spotar.o(.text)
    app_set_image_valid_flag                 0x2000516d   Thumb Code    90  app_spotar.o(.text)
    app_spotar_start                         0x200051c7   Thumb Code    44  app_spotar.o(.text)
    app_spotar_read_mem                      0x200051f3   Thumb Code   224  app_spotar.o(.text)
    spotar_send_mem_info_update_req          0x200052d3   Thumb Code    26  app_spotar.o(.text)
    app_spotar_pd_hdlr                       0x200052ed   Thumb Code   414  app_spotar.o(.text)
    app_erase_flash_sectors                  0x2000548b   Thumb Code    58  app_spotar.o(.text)
    app_get_image_id                         0x200054c5   Thumb Code    16  app_spotar.o(.text)
    app_find_old_img                         0x200054d5   Thumb Code    52  app_spotar.o(.text)
    app_read_ext_mem                         0x20005509   Thumb Code    46  app_spotar.o(.text)
    app_read_image_headers                   0x20005537   Thumb Code   640  app_spotar.o(.text)
    app_spotar_img_hdlr                      0x200057b7   Thumb Code   312  app_spotar.o(.text)
    app_spotar_process_handler               0x20005a7b   Thumb Code    32  app_spotar_task.o(.text)
    app_entry_point_handler                  0x20005aad   Thumb Code    62  app_entry_point.o(.text)
    app_std_process_event                    0x20005b21   Thumb Code    50  app_entry_point.o(.text)
    app_check_BLE_active                     0x20005b61   Thumb Code    38  app_msg_utils.o(.text)
    app_timer_api_process_handler            0x20005ccf   Thumb Code    70  app_easy_timer.o(.text)
    app_easy_timer                           0x20005d15   Thumb Code    62  app_easy_timer.o(.text)
    app_easy_timer_cancel                    0x20005d53   Thumb Code    60  app_easy_timer.o(.text)
    app_custs1_create_db                     0x20005dc9   Thumb Code    74  app_customs.o(.text)
    app_custs1_enable                        0x20005e13   Thumb Code    36  app_customs.o(.text)
    app_custs1_process_handler               0x20005e6b   Thumb Code    32  app_customs_task.o(.text)
    set_pad_functions                        0x20005e91   Thumb Code   236  user_periph_setup.o(.text)
    periph_init                              0x20005f7d   Thumb Code   118  user_periph_setup.o(.text)
    user_app_init                            0x2000604d   Thumb Code    18  user_profile.o(.text)
    user_app_adv_start                       0x200060b1   Thumb Code    42  user_profile.o(.text)
    user_app_connection                      0x200060db   Thumb Code    78  user_profile.o(.text)
    user_app_adv_undirect_complete           0x20006129   Thumb Code     8  user_profile.o(.text)
    user_app_disconnect                      0x20006131   Thumb Code    58  user_profile.o(.text)
    user_catch_rest_hndl                     0x2000616b   Thumb Code     6  user_profile.o(.text)
    on_spotar_status_change                  0x20006171   Thumb Code     2  user_profile.o(.text)
    Write                                    0x200061bb   Thumb Code    56  fk_oled.o(.text)
    set_position                             0x200061f3   Thumb Code    92  fk_oled.o(.text)
    draw_picture1                            0x2000624f   Thumb Code    90  fk_oled.o(.text)
    clean_screen                             0x200062a9   Thumb Code    70  fk_oled.o(.text)
    OLED_Init                                0x200062ef   Thumb Code   620  fk_oled.o(.text)
    show_number1632                          0x2000655b   Thumb Code   172  fk_oled.o(.text)
    show_number2448                          0x20006607   Thumb Code   158  fk_oled.o(.text)
    oled_display                             0x200066a5   Thumb Code   932  fk_oled.o(.text)
    my_int_button1_handler                   0x20006a49   Thumb Code    22  my_int.o(.text)
    my_int_init                              0x20006a5f   Thumb Code    36  my_int.o(.text)
    timer0_general_user_callback_function    0x20006a91   Thumb Code   344  my_timer.o(.text)
    my_timer_init                            0x20006be9   Thumb Code    62  my_timer.o(.text)
    Delay_1ms                                0x20006c27   Thumb Code    24  my_timer.o(.text)
    timer_process                            0x20006c3f   Thumb Code   178  my_timer.o(.text)
    LIS2DS12_ACC_ReadReg                     0x20006d15   Thumb Code    18  lis2ds12_acc_driver.o(.text)
    LIS2DS12_ACC_WriteReg                    0x20006d27   Thumb Code    18  lis2ds12_acc_driver.o(.text)
    LIS2DS12_ACC_R_WHO_AM_I_BIT              0x20006d39   Thumb Code    28  lis2ds12_acc_driver.o(.text)
    LIS2DS12_ACC_W_ODR                       0x20006d55   Thumb Code    50  lis2ds12_acc_driver.o(.text)
    LIS2DS12_ACC_W_SOFT_RESET                0x20006d87   Thumb Code    50  lis2ds12_acc_driver.o(.text)
    LIS2DS12_ACC_W_LIR                       0x20006db9   Thumb Code    50  lis2ds12_acc_driver.o(.text)
    LIS2DS12_ACC_W_INT2_STEP_DET             0x20006deb   Thumb Code    50  lis2ds12_acc_driver.o(.text)
    LIS2DS12_ACC_W_RST_NSTEP                 0x20006e1d   Thumb Code    50  lis2ds12_acc_driver.o(.text)
    LIS2DS12_ACC_R_STEP_DETECT               0x20006e4f   Thumb Code    32  lis2ds12_acc_driver.o(.text)
    LIS2DS12_ACC_W_STEP_CNT_ON               0x20006e6f   Thumb Code    50  lis2ds12_acc_driver.o(.text)
    LIS2DS12_ACC_Get_StepCounter             0x20006ea1   Thumb Code    46  lis2ds12_acc_driver.o(.text)
    adc_test                                 0x20006ed1   Thumb Code    26  my_adc.o(.text)
    __scatterload                            0x20006ef1   Thumb Code    28  init.o(.text)
    __scatterload_rt2                        0x20006ef1   Thumb Code     0  init.o(.text)
    Long Thumb to Thumb Veneer to memcmp     0x20006f15   Thumb Code    12  anon$$obj.o(Veneer$$Code)
    Long Thumb to Thumb Veneer to __aeabi_memcpy 0x20006f21   Thumb Code    12  anon$$obj.o(Veneer$$Code)
    Long Thumb to Thumb Veneer to nvds_get_func 0x20006f2d   Thumb Code    12  anon$$obj.o(Veneer$$Code)
    Long Thumb to Thumb Veneer to __aeabi_uidivmod 0x20006f39   Thumb Code    12  anon$$obj.o(Veneer$$Code)
    Long Thumb to Thumb Veneer to rwip_prevent_sleep_get 0x20006f45   Thumb Code    12  anon$$obj.o(Veneer$$Code)
    Long Thumb to Thumb Veneer to ke_event_get 0x20006f51   Thumb Code    12  anon$$obj.o(Veneer$$Code)
    Long Thumb to Thumb Veneer to rwip_schedule 0x20006f5d   Thumb Code    12  anon$$obj.o(Veneer$$Code)
    Long Thumb to Thumb Veneer to lld_sleep_check 0x20006f69   Thumb Code    12  anon$$obj.o(Veneer$$Code)
    Long Thumb to Thumb Veneer to func_check_mem 0x20006f75   Thumb Code    12  anon$$obj.o(Veneer$$Code)
    Long Thumb to Thumb Veneer to test_rxdone 0x20006f81   Thumb Code    12  anon$$obj.o(Veneer$$Code)
    Long Thumb to Thumb Veneer to ke_mem_is_empty 0x20006f8d   Thumb Code    12  anon$$obj.o(Veneer$$Code)
    Long Thumb to Thumb Veneer to rwip_wakeup_delay_set 0x20006f99   Thumb Code    12  anon$$obj.o(Veneer$$Code)
    Long Thumb to Thumb Veneer to $Super$$get_rc16m_count_func 0x20006fa5   Thumb Code    12  anon$$obj.o(Veneer$$Code)
    Long Thumb to Thumb Veneer to get_rc16m_count 0x20006fb1   Thumb Code    12  anon$$obj.o(Veneer$$Code)
    Long Thumb to Thumb Veneer to pll_vcocal_LUT_InitUpdate 0x20006fbd   Thumb Code    12  anon$$obj.o(Veneer$$Code)
    Long Thumb to Thumb Veneer to rf_calibration 0x20006fc9   Thumb Code    12  anon$$obj.o(Veneer$$Code)
    Long Thumb to Thumb Veneer to lld_sleep_us_2_lpcycles_func 0x20006fd5   Thumb Code    12  anon$$obj.o(Veneer$$Code)
    Long Thumb to Thumb Veneer to lld_sleep_lpcycles_2_us_func 0x20006fe1   Thumb Code    12  anon$$obj.o(Veneer$$Code)
    Long Thumb to Thumb Veneer to uart_flow_on 0x20006fed   Thumb Code    12  anon$$obj.o(Veneer$$Code)
    Long Thumb to Thumb Veneer to srand      0x20006ff9   Thumb Code    12  anon$$obj.o(Veneer$$Code)
    Long Thumb to Thumb Veneer to set_system_clocks 0x20007005   Thumb Code    12  anon$$obj.o(Veneer$$Code)
    Long Thumb to Thumb Veneer to nvds_init  0x20007011   Thumb Code    12  anon$$obj.o(Veneer$$Code)
    Long Thumb to Thumb Veneer to rwip_init  0x2000701d   Thumb Code    12  anon$$obj.o(Veneer$$Code)
    Long Thumb to Thumb Veneer to enable_rf_diag_irq 0x20007029   Thumb Code    12  anon$$obj.o(Veneer$$Code)
    Long Thumb to Thumb Veneer to platform_reset_func 0x20007035   Thumb Code    12  anon$$obj.o(Veneer$$Code)
    Long Thumb to Thumb Veneer to ke_handler_search 0x20007041   Thumb Code    12  anon$$obj.o(Veneer$$Code)
    Long Thumb to Thumb Veneer to ke_state_get 0x2000704d   Thumb Code    12  anon$$obj.o(Veneer$$Code)
    Long Thumb to Thumb Veneer to TASK_LLM_lld_data_ind_handler 0x20007059   Thumb Code    12  anon$$obj.o(Veneer$$Code)
    Long Thumb to Thumb Veneer to co_buf_rx_free 0x20007065   Thumb Code    12  anon$$obj.o(Veneer$$Code)
    Long Thumb to Thumb Veneer to ke_malloc  0x20007071   Thumb Code    12  anon$$obj.o(Veneer$$Code)
    Long Thumb to Thumb Veneer to __aeabi_memclr4 0x2000707d   Thumb Code    12  anon$$obj.o(Veneer$$Code)
    Long Thumb to Thumb Veneer to ke_state_set 0x20007089   Thumb Code    12  anon$$obj.o(Veneer$$Code)
    Long Thumb to Thumb Veneer to ke_msg_alloc 0x20007095   Thumb Code    12  anon$$obj.o(Veneer$$Code)
    Long Thumb to Thumb Veneer to ke_msg_send 0x200070a1   Thumb Code    12  anon$$obj.o(Veneer$$Code)
    Long Thumb to Thumb Veneer to __ARM_common_switch8 0x200070ad   Thumb Code    12  anon$$obj.o(Veneer$$Code)
    Long Thumb to Thumb Veneer to ke_timer_clear 0x200070b9   Thumb Code    12  anon$$obj.o(Veneer$$Code)
    Long Thumb to Thumb Veneer to atts_send_cmd_cmp 0x200070c5   Thumb Code    12  anon$$obj.o(Veneer$$Code)
    Long Thumb to Thumb Veneer to atts_mtu_exc_resp 0x200070d1   Thumb Code    12  anon$$obj.o(Veneer$$Code)
    Long Thumb to Thumb Veneer to atts_find_info_resp 0x200070dd   Thumb Code    12  anon$$obj.o(Veneer$$Code)
    Long Thumb to Thumb Veneer to atts_find_by_type_resp 0x200070e9   Thumb Code    12  anon$$obj.o(Veneer$$Code)
    Long Thumb to Thumb Veneer to atts_read_by_type_resp 0x200070f5   Thumb Code    12  anon$$obj.o(Veneer$$Code)
    Long Thumb to Thumb Veneer to atts_read_by_grp_type_resp 0x20007101   Thumb Code    12  anon$$obj.o(Veneer$$Code)
    Long Thumb to Thumb Veneer to atts_read_blob_resp 0x2000710d   Thumb Code    12  anon$$obj.o(Veneer$$Code)
    Long Thumb to Thumb Veneer to atts_read_mult_resp 0x20007119   Thumb Code    12  anon$$obj.o(Veneer$$Code)
    Long Thumb to Thumb Veneer to atts_write_no_resp 0x20007125   Thumb Code    12  anon$$obj.o(Veneer$$Code)
    Long Thumb to Thumb Veneer to atts_write_resp 0x20007131   Thumb Code    12  anon$$obj.o(Veneer$$Code)
    Long Thumb to Thumb Veneer to atts_signed_write_resp 0x2000713d   Thumb Code    12  anon$$obj.o(Veneer$$Code)
    Long Thumb to Thumb Veneer to atts_prepare_write_resp 0x20007149   Thumb Code    12  anon$$obj.o(Veneer$$Code)
    Long Thumb to Thumb Veneer to atts_execute_write_resp 0x20007155   Thumb Code    12  anon$$obj.o(Veneer$$Code)
    Long Thumb to Thumb Veneer to attmdb_get_attribute 0x20007161   Thumb Code    12  anon$$obj.o(Veneer$$Code)
    Long Thumb to Thumb Veneer to gattc_get_mtu 0x2000716d   Thumb Code    12  anon$$obj.o(Veneer$$Code)
    Long Thumb to Thumb Veneer to atts_allocate_pdu 0x20007179   Thumb Code    12  anon$$obj.o(Veneer$$Code)
    Long Thumb to Thumb Veneer to atts_send_error 0x20007185   Thumb Code    12  anon$$obj.o(Veneer$$Code)
    Long Thumb to Thumb Veneer to atts_send_pdu 0x20007191   Thumb Code    12  anon$$obj.o(Veneer$$Code)
    Long Thumb to Thumb Veneer to atts_get_att_chk_perm 0x2000719d   Thumb Code    12  anon$$obj.o(Veneer$$Code)
    Long Thumb to Thumb Veneer to attmdb_get_service 0x200071a9   Thumb Code    12  anon$$obj.o(Veneer$$Code)
    Long Thumb to Thumb Veneer to __aeabi_llsl 0x200071b5   Thumb Code    12  anon$$obj.o(Veneer$$Code)
    Long Thumb to Thumb Veneer to lld_con_update_ind 0x200071c1   Thumb Code    12  anon$$obj.o(Veneer$$Code)
    Long Thumb to Thumb Veneer to llc_util_dicon_procedure 0x200071cd   Thumb Code    12  anon$$obj.o(Veneer$$Code)
    Long Thumb to Thumb Veneer to lld_ch_map_ind 0x200071d9   Thumb Code    12  anon$$obj.o(Veneer$$Code)
    Long Thumb to Thumb Veneer to gapm_get_privacy_flag 0x200071e5   Thumb Code    12  anon$$obj.o(Veneer$$Code)
    Long Thumb to Thumb Veneer to gapm_set_recon_addr 0x200071f1   Thumb Code    12  anon$$obj.o(Veneer$$Code)
    Long Thumb to Thumb Veneer to co_list_pop_front 0x200071fd   Thumb Code    12  anon$$obj.o(Veneer$$Code)
    Long Thumb to Thumb Veneer to ke_task_handler_get 0x20007209   Thumb Code    12  anon$$obj.o(Veneer$$Code)
    Long Thumb to Thumb Veneer to ke_msg_free 0x20007215   Thumb Code    12  anon$$obj.o(Veneer$$Code)
    Long Thumb to Thumb Veneer to co_list_push_back 0x20007221   Thumb Code    12  anon$$obj.o(Veneer$$Code)
    Long Thumb to Thumb Veneer to ke_event_clear 0x2000722d   Thumb Code    12  anon$$obj.o(Veneer$$Code)
    Long Thumb to Thumb Veneer to ke_event_callback_set 0x20007239   Thumb Code    12  anon$$obj.o(Veneer$$Code)
    Long Thumb to Thumb Veneer to gapc_get_enc_keysize 0x20007245   Thumb Code    12  anon$$obj.o(Veneer$$Code)
    Long Thumb to Thumb Veneer to gapc_get_role 0x20007251   Thumb Code    12  anon$$obj.o(Veneer$$Code)
    Long Thumb to Thumb Veneer to smpc_generate_rand 0x2000725d   Thumb Code    12  anon$$obj.o(Veneer$$Code)
    Long Thumb to Thumb Veneer to smpc_tkdp_send_continue 0x20007269   Thumb Code    12  anon$$obj.o(Veneer$$Code)
    Long Thumb to Thumb Veneer to smpc_pdu_send 0x20007275   Thumb Code    12  anon$$obj.o(Veneer$$Code)
    Long Thumb to Thumb Veneer to smpc_tkdp_rcp_start 0x20007281   Thumb Code    12  anon$$obj.o(Veneer$$Code)
    Long Thumb to Thumb Veneer to smpc_pairing_end 0x2000728d   Thumb Code    12  anon$$obj.o(Veneer$$Code)
    Long Thumb to Thumb Veneer to smpc_check_max_key_size 0x20007299   Thumb Code    12  anon$$obj.o(Veneer$$Code)
    Long Thumb to Thumb Veneer to smpc_check_key_distrib 0x200072a5   Thumb Code    12  anon$$obj.o(Veneer$$Code)
    Long Thumb to Thumb Veneer to smpc_get_key_sec_prop 0x200072b1   Thumb Code    12  anon$$obj.o(Veneer$$Code)
    Long Thumb to Thumb Veneer to smpc_is_sec_mode_reached 0x200072bd   Thumb Code    12  anon$$obj.o(Veneer$$Code)
    Long Thumb to Thumb Veneer to rand       0x200072c9   Thumb Code    12  anon$$obj.o(Veneer$$Code)
    Long Thumb to Thumb Veneer to llc_pdu_send 0x200072d5   Thumb Code    12  anon$$obj.o(Veneer$$Code)
    Long Thumb to Thumb Veneer to llm_util_check_evt_mask 0x200072e1   Thumb Code    12  anon$$obj.o(Veneer$$Code)
    Long Thumb to Thumb Veneer to llc_ltk_req_send 0x200072ed   Thumb Code    12  anon$$obj.o(Veneer$$Code)
    Long Thumb to Thumb Veneer to llc_terminate_ind_pdu_send 0x200072f9   Thumb Code    12  anon$$obj.o(Veneer$$Code)
    Long Thumb to Thumb Veneer to ke_timer_set 0x20007305   Thumb Code    12  anon$$obj.o(Veneer$$Code)
    Long Thumb to Thumb Veneer to llc_reject_ind_pdu_send 0x20007311   Thumb Code    12  anon$$obj.o(Veneer$$Code)
    Long Thumb to Thumb Veneer to llm_util_get_role 0x2000731d   Thumb Code    12  anon$$obj.o(Veneer$$Code)
    Long Thumb to Thumb Veneer to llc_le_con_update_cmd_handler 0x20007329   Thumb Code    12  anon$$obj.o(Veneer$$Code)
    Long Thumb to Thumb Veneer to lld_evt_int_extract 0x20007335   Thumb Code    12  anon$$obj.o(Veneer$$Code)
    Long Thumb to Thumb Veneer to ke_free    0x20007341   Thumb Code    12  anon$$obj.o(Veneer$$Code)
    Long Thumb to Thumb Veneer to lld_stop_ind_handler 0x2000734d   Thumb Code    12  anon$$obj.o(Veneer$$Code)
    Long Thumb to Thumb Veneer to llc_start_enc_rsp_pdu_send 0x20007359   Thumb Code    12  anon$$obj.o(Veneer$$Code)
    Long Thumb to Thumb Veneer to llc_common_enc_change_evt_send 0x20007365   Thumb Code    12  anon$$obj.o(Veneer$$Code)
    Long Thumb to Thumb Veneer to llc_llcp_rsp_to_ind_handler 0x20007371   Thumb Code    12  anon$$obj.o(Veneer$$Code)
    Long Thumb to Thumb Veneer to llc_link_sup_to_ind_handler 0x2000737d   Thumb Code    12  anon$$obj.o(Veneer$$Code)
    Long Thumb to Thumb Veneer to gapc_send_error_evt 0x20007389   Thumb Code    12  anon$$obj.o(Veneer$$Code)
    Long Thumb to Thumb Veneer to gapc_get_operation 0x20007395   Thumb Code    12  anon$$obj.o(Veneer$$Code)
    Long Thumb to Thumb Veneer to gapc_send_complete_evt 0x200073a1   Thumb Code    12  anon$$obj.o(Veneer$$Code)
    Long Thumb to Thumb Veneer to gapc_send_disconect_ind 0x200073ad   Thumb Code    12  anon$$obj.o(Veneer$$Code)
    Long Thumb to Thumb Veneer to gapm_con_cleanup 0x200073b9   Thumb Code    12  anon$$obj.o(Veneer$$Code)
    Long Thumb to Thumb Veneer to llc_con_update_cmd_complete_send 0x200073c5   Thumb Code    12  anon$$obj.o(Veneer$$Code)
    Long Thumb to Thumb Veneer to __aeabi_idivmod 0x200073d1   Thumb Code    12  anon$$obj.o(Veneer$$Code)
    Long Thumb to Thumb Veneer to IffCalibration 0x200073dd   Thumb Code    12  anon$$obj.o(Veneer$$Code)
    Long Thumb to Thumb Veneer to DCoffsetCalibration 0x200073e9   Thumb Code    12  anon$$obj.o(Veneer$$Code)
    Long Thumb to Thumb Veneer to __aeabi_memclr 0x200073f5   Thumb Code    12  anon$$obj.o(Veneer$$Code)
    Long Thumb to Thumb Veneer to ble_regs_pop 0x20007401   Thumb Code    12  anon$$obj.o(Veneer$$Code)
    Long Thumb to Thumb Veneer to rwip_wakeup 0x2000740d   Thumb Code    12  anon$$obj.o(Veneer$$Code)
    Long Thumb to Thumb Veneer to rf_workaround_init 0x20007419   Thumb Code    12  anon$$obj.o(Veneer$$Code)
    Long Thumb to Thumb Veneer to rf_reinit  0x20007425   Thumb Code    12  anon$$obj.o(Veneer$$Code)
    Long Thumb to Thumb Veneer to lld_evt_start_isr 0x20007431   Thumb Code    12  anon$$obj.o(Veneer$$Code)
    Long Thumb to Thumb Veneer to $Super$$BLE_CSCNT_Handler 0x2000743d   Thumb Code    12  anon$$obj.o(Veneer$$Code)
    Long Thumb to Thumb Veneer to lld_evt_rx_isr 0x20007449   Thumb Code    12  anon$$obj.o(Veneer$$Code)
    Long Thumb to Thumb Veneer to lld_evt_end_isr 0x20007455   Thumb Code    12  anon$$obj.o(Veneer$$Code)
    Long Thumb to Thumb Veneer to set_rf_cal_cap 0x20007461   Thumb Code    12  anon$$obj.o(Veneer$$Code)
    Long Thumb to Thumb Veneer to set_gauss_modgain 0x2000746d   Thumb Code    12  anon$$obj.o(Veneer$$Code)
    Long Thumb to Thumb Veneer to ke_sleep_check 0x20007479   Thumb Code    12  anon$$obj.o(Veneer$$Code)
    Long Thumb to Thumb Veneer to ke_timer_sleep_check 0x20007485   Thumb Code    12  anon$$obj.o(Veneer$$Code)
    Long Thumb to Thumb Veneer to lld_sleep_enter 0x20007491   Thumb Code    12  anon$$obj.o(Veneer$$Code)
    Long Thumb to Thumb Veneer to ble_regs_push 0x2000749d   Thumb Code    12  anon$$obj.o(Veneer$$Code)
    Long Thumb to Thumb Veneer to ke_task_create 0x200074a9   Thumb Code    12  anon$$obj.o(Veneer$$Code)
    Long Thumb to Thumb Veneer to attmdb_svc_set_permission 0x200074b5   Thumb Code    12  anon$$obj.o(Veneer$$Code)
    Long Thumb to Thumb Veneer to attm_svc_create_db 0x200074c1   Thumb Code    12  anon$$obj.o(Veneer$$Code)
    Long Thumb to Thumb Veneer to attmdb_att_set_value 0x200074cd   Thumb Code    12  anon$$obj.o(Veneer$$Code)
    Long Thumb to Thumb Veneer to gapc_get_conidx 0x200074d9   Thumb Code    12  anon$$obj.o(Veneer$$Code)
    Long Thumb to Thumb Veneer to gapc_get_conhdl 0x200074e5   Thumb Code    12  anon$$obj.o(Veneer$$Code)
    Long Thumb to Thumb Veneer to attmdb_att_partial_value_update 0x200074f1   Thumb Code    12  anon$$obj.o(Veneer$$Code)
    Long Thumb to Thumb Veneer to attmdb_att_set_permission 0x200074fd   Thumb Code    12  anon$$obj.o(Veneer$$Code)
    Long Thumb to Thumb Veneer to strlen     0x20007509   Thumb Code    12  anon$$obj.o(Veneer$$Code)
    Long Thumb to Thumb Veneer to atts_write_rsp_send 0x20007515   Thumb Code    12  anon$$obj.o(Veneer$$Code)
    Long Thumb to Thumb Veneer to attmdb_att_get_value 0x20007521   Thumb Code    12  anon$$obj.o(Veneer$$Code)
    Long Thumb to Thumb Veneer to attmdb_att_get_uuid 0x2000752d   Thumb Code    12  anon$$obj.o(Veneer$$Code)
    Long Thumb to Thumb Veneer to attmdb_add_service 0x20007539   Thumb Code    12  anon$$obj.o(Veneer$$Code)
    Long Thumb to Thumb Veneer to attmdb_add_attribute 0x20007545   Thumb Code    12  anon$$obj.o(Veneer$$Code)
    Long Thumb to Thumb Veneer to nvds_get   0x20007551   Thumb Code    12  anon$$obj.o(Veneer$$Code)
    Long Thumb to Thumb Veneer to get_patching_spota_length 0x2000755d   Thumb Code    12  anon$$obj.o(Veneer$$Code)
    Long Thumb to Thumb Veneer to __aeabi_memset 0x20007569   Thumb Code    12  anon$$obj.o(Veneer$$Code)
    Long Thumb to Thumb Veneer to platform_reset 0x20007575   Thumb Code    12  anon$$obj.o(Veneer$$Code)
    __ARM_common_ll_muluu                    0x20007581   Thumb Code    50  rwip.o(i.__ARM_common_ll_muluu)
    __scatterload_copy                       0x200075b3   Thumb Code    14  handlers.o(i.__scatterload_copy)
    __scatterload_null                       0x200075c1   Thumb Code     2  handlers.o(i.__scatterload_null)
    __scatterload_zeroinit                   0x200075c3   Thumb Code    14  handlers.o(i.__scatterload_zeroinit)
    free                                     0x200075d1   Thumb Code    80  malloc.o(i.free)
    malloc                                   0x20007625   Thumb Code    92  malloc.o(i.malloc)
    set_tmr_div                              0x20007691   Thumb Code    18  pwm.o(i.set_tmr_div)
    set_tmr_enable                           0x200076a9   Thumb Code    18  pwm.o(i.set_tmr_enable)
    timer0_register_callback                 0x200076c1   Thumb Code     6  pwm.o(i.timer0_register_callback)
    timer0_set_pwm_high_counter              0x200076cd   Thumb Code     6  pwm.o(i.timer0_set_pwm_high_counter)
    timer0_set_pwm_low_counter               0x200076d9   Thumb Code     6  pwm.o(i.timer0_set_pwm_low_counter)
    timer0_set_pwm_on_counter                0x200076e5   Thumb Code     6  pwm.o(i.timer0_set_pwm_on_counter)
    timer0_start                             0x200076f1   Thumb Code    12  pwm.o(i.timer0_start)
    timer0_stop                              0x20007701   Thumb Code    12  pwm.o(i.timer0_stop)
    LUT_CFG                                  0x20007710   Data          22  jump_table.o(.constdata)
    atts_read_resp_impl                      0x20007728   Data           4  arch_patch.o(.constdata)
    my_atts_default_handler                  0x2000780c   Data           8  atts_task.obj(.constdata)
    TASK_DESC_ATTS                           0x20007814   Data          16  atts_task.obj(.constdata)
    my_llc_state_handler                     0x2000787c   Data         176  llc.obj(.constdata)
    my_llc_default_handler                   0x2000792c   Data           8  llc.obj(.constdata)
    TASK_DESC_LLC                            0x20007934   Data          16  llc.obj(.constdata)
    diss_att_db                              0x20007974   Data         228  diss.o(.constdata)
    diss_dis_svc                             0x20007a58   Data           2  diss.o(.constdata)
    diss_manufacturer_name_char              0x20007a5a   Data           5  diss.o(.constdata)
    diss_model_nb_str_char                   0x20007a5f   Data           5  diss.o(.constdata)
    diss_serial_nb_str_char                  0x20007a64   Data           5  diss.o(.constdata)
    diss_hard_rev_str_char                   0x20007a69   Data           5  diss.o(.constdata)
    diss_firm_rev_str_char                   0x20007a6e   Data           5  diss.o(.constdata)
    diss_sw_rev_str_char                     0x20007a73   Data           5  diss.o(.constdata)
    diss_system_id_char                      0x20007a78   Data           5  diss.o(.constdata)
    diss_ieee_char                           0x20007a7d   Data           5  diss.o(.constdata)
    diss_pnp_id_char                         0x20007a82   Data           5  diss.o(.constdata)
    diss_disabled                            0x20007a98   Data           8  diss_task.o(.constdata)
    diss_idle                                0x20007aa0   Data          16  diss_task.o(.constdata)
    diss_default_state                       0x20007ab0   Data           8  diss_task.o(.constdata)
    diss_state_handler                       0x20007ab8   Data          24  diss_task.o(.constdata)
    diss_default_handler                     0x20007ad0   Data           8  diss_task.o(.constdata)
    custs1_disabled                          0x20007ae8   Data           8  custs1_task.o(.constdata)
    custs1_idle                              0x20007af0   Data           8  custs1_task.o(.constdata)
    custs1_connected                         0x20007af8   Data          40  custs1_task.o(.constdata)
    custs1_default_state                     0x20007b20   Data           8  custs1_task.o(.constdata)
    custs1_state_handler                     0x20007b28   Data          24  custs1_task.o(.constdata)
    custs1_default_handler                   0x20007b40   Data           8  custs1_task.o(.constdata)
    spotar_service                           0x20007b48   Data           2  spotar.o(.constdata)
    spotar_patch_mem_dev_val                 0x20007b4a   Data          16  spotar.o(.constdata)
    spotar_gpio_map_val                      0x20007b5a   Data          16  spotar.o(.constdata)
    spotar_patch_mem_info_val                0x20007b6a   Data          16  spotar.o(.constdata)
    spotar_patch_len_val                     0x20007b7a   Data          16  spotar.o(.constdata)
    spotar_patch_data_val                    0x20007b8a   Data          16  spotar.o(.constdata)
    spotar_patch_status_val                  0x20007b9a   Data          16  spotar.o(.constdata)
    spotar_disabled                          0x20007bbc   Data           8  spotar_task.o(.constdata)
    spotar_idle                              0x20007bc4   Data           8  spotar_task.o(.constdata)
    spotar_active                            0x20007bcc   Data          24  spotar_task.o(.constdata)
    spotar_default_state                     0x20007be4   Data           8  spotar_task.o(.constdata)
    spotar_state_handler                     0x20007bec   Data          24  spotar_task.o(.constdata)
    spotar_default_handler                   0x20007c04   Data           8  spotar_task.o(.constdata)
    prf_funcs                                0x20007c4c   Data          36  app.o(.constdata)
    app_default_state                        0x20007cbc   Data           8  app_task.o(.constdata)
    app_default_handler                      0x20007cc4   Data           8  app_task.o(.constdata)
    app_process_handlers                     0x20007d08   Data          20  app_entry_point.o(.constdata)
    cust_prf_funcs                           0x20007d2c   Data          56  user_custs_config.o(.constdata)
    custs1_att_db                            0x20007d88   Data         108  user_custs1_def.o(.constdata)
    Region$$Table$$Base                      0x20007df4   Number         0  anon$$obj.o(Region$$Table)
    Region$$Table$$Limit                     0x20007e24   Number         0  anon$$obj.o(Region$$Table)
    dgh                                      0x20007e24   Data           1  arch_main.o(.data)
    startup_sleep_delay                      0x20007e28   Data           4  arch_system.o(.data)
    spotar_patch_mem_dev_char                0x20007e2c   Data          19  spotar.o(.data)
    spotar_gpio_map_char                     0x20007e3f   Data          19  spotar.o(.data)
    spotar_patch_mem_info_char               0x20007e52   Data          19  spotar.o(.data)
    spotar_patch_len_char                    0x20007e65   Data          19  spotar.o(.data)
    spotar_patch_data_char                   0x20007e78   Data          19  spotar.o(.data)
    spotar_patch_status_char                 0x20007e8b   Data          19  spotar.o(.data)
    time_buff                                0x20007e9e   Data           5  fk_oled.o(.data)
    Steps                                    0x20007ea3   Data           5  fk_oled.o(.data)
    Calorie                                  0x20007ea8   Data           5  fk_oled.o(.data)
    Blood_o                                  0x20007ead   Data           5  fk_oled.o(.data)
    date_buff                                0x20007eb2   Data          10  fk_oled.o(.data)
    Blood_p                                  0x20007ebc   Data          11  fk_oled.o(.data)
    power_rate                               0x20007ec8   Data           1  my_adc.o(.data)
    power_level                              0x20007ec9   Data           1  my_adc.o(.data)
    __microlib_freelist                      0x20007ecc   Data           4  mvars.o(.data)
    __microlib_freelist_initialised          0x20007ed0   Data           4  mvars.o(.data)
    LIS2DS12_response                        0x20008000   Data           1  arch_main.o(.bss)
    Number_Of_Steps                          0x20008002   Data           2  arch_main.o(.bss)
    CalorieNum                               0x20008004   Data           2  arch_main.o(.bss)
    hr_capture                               0x20008006   Data           1  arch_main.o(.bss)
    GPIOHandlerFunction                      0x20008008   Data          20  gpio.o(.bss)
    spi_flash_device_index                   0x2000801c   Data           2  spi_flash.o(.bss)
    spi_flash_detected_device                0x20008020   Data           4  spi_flash.o(.bss)
    spi_flash_size                           0x20008024   Data           4  spi_flash.o(.bss)
    spi_flash_page_size                      0x20008028   Data           4  spi_flash.o(.bss)
    spi_driver_cs_pad                        0x2000802c   Data           2  spi.o(.bss)
    uart_recevie_data_length                 0x20008030   Data           1  uart2.o(.bss)
    uart_recevie_data                        0x20008031   Data          80  uart2.o(.bss)
    led1_value                               0x20008081   Data          20  uart2.o(.bss)
    led2_value                               0x20008095   Data          20  uart2.o(.bss)
    led3_value                               0x200080a9   Data          20  uart2.o(.bss)
    TIMER0_callback                          0x200080c0   Data           4  pwm.o(.bss)
    app_connection_idx                       0x200080c4   Data           1  user_profile.o(.bss)
    app_adv_data_update_timer_used           0x200080c5   Data           1  user_profile.o(.bss)
    app_param_update_request_timer_used      0x200080c6   Data           1  user_profile.o(.bss)
    Heart_Rate                               0x200080c8   Data           3  fk_oled.o(.bss)
    Blood_s                                  0x200080cb   Data           3  fk_oled.o(.bss)
    target_address                           0x200080d0   Data           4  fk_oled.o(.bss)
    show_picture                             0x200080d4   Data        2048  fk_oled.o(.bss)
    Touch_release                            0x200088d4   Data           1  my_int.o(.bss)
    heart_beat_flag                          0x200088d8   Data           1  my_timer.o(.bss)
    blood_oxygen_flag                        0x200088d9   Data           1  my_timer.o(.bss)
    write_flash_flag                         0x200088da   Data           1  my_timer.o(.bss)
    StepFlag                                 0x200088db   Data           1  my_timer.o(.bss)
    close_flag                               0x200088dc   Data           1  my_timer.o(.bss)
    OLED_dis_flag                            0x200088dd   Data           1  my_timer.o(.bss)
    OLED_Page                                0x200088de   Data           1  my_timer.o(.bss)
    Long_Time_Tch                            0x200088df   Data           1  my_timer.o(.bss)
    hour                                     0x200088e0   Data           1  my_timer.o(.bss)
    minute                                   0x200088e1   Data           1  my_timer.o(.bss)
    seconds                                  0x200088e2   Data           1  my_timer.o(.bss)
    Time_Counter                             0x200088e4   Data           4  my_timer.o(.bss)
    Timer                                    0x200088e8   Data           4  my_timer.o(.bss)
    DisplayTimer                             0x200088ec   Data           4  my_timer.o(.bss)
    dghData                                  0x200088f0   Data          20  my_timer.o(.bss)
    __heap_base                              0x20008908   Data           0  boot_vectors.o(HEAP)
    __heap_limit                             0x20008a08   Data           0  boot_vectors.o(HEAP)
    dev_bdaddr                               0x20008a08   Data           6  nvds.o(retention_mem_area0)
    sys_startup_flag                         0x20008a0e   Data           1  arch_main.o(retention_mem_area0)
    sleep_md                                 0x20008a0f   Data           1  arch_sleep.o(retention_mem_area0)
    sleep_pend                               0x20008a10   Data           1  arch_sleep.o(retention_mem_area0)
    sleep_cnt                                0x20008a11   Data           1  arch_sleep.o(retention_mem_area0)
    sleep_ext_force                          0x20008a12   Data           1  arch_sleep.o(retention_mem_area0)
    cal_enable                               0x20008a14   Data           1  arch_system.o(retention_mem_area0)
    force_rf_cal                             0x20008a15   Data           1  arch_system.o(retention_mem_area0)
    arch_wkupct_deb_time                     0x20008a16   Data           2  arch_system.o(retention_mem_area0)
    lp_clk_sel                               0x20008a18   Data           4  arch_system.o(retention_mem_area0)
    rcx_freq                                 0x20008a1c   Data           4  arch_system.o(retention_mem_area0)
    rcx_period                               0x20008a20   Data           4  arch_system.o(retention_mem_area0)
    rcx_slot_duration_num                    0x20008a24   Data           4  arch_system.o(retention_mem_area0)
    rcx_slot_duration_den                    0x20008a28   Data           4  arch_system.o(retention_mem_area0)
    dg_registered_tasks                      0x20008a30   Data           8  atts_util.obj(retention_mem_area0)
    alt_evts                                 0x20008a38   Data          24  llc.obj(retention_mem_area0)
    wkupct_quad_IRQ_status                   0x20008a50   Data           1  wkupct_quadec.o(retention_mem_area0)
    arch_rwble_last_event                    0x20008a7a   Data           1  rwble.o(retention_mem_area0)
    set_boost_low_vbat1v_overhead            0x20008a7b   Data           1  rwble.o(retention_mem_area0)
    fine_hit                                 0x20008a7d   Data           1  rwble.o(retention_mem_area0)
    clk_freq_trim_reg_value                  0x20008a7e   Data           2  rwble.o(retention_mem_area0)
    wakeup_lp_comp                           0x20008a80   Data           2  rwble.o(retention_mem_area0)
    diss_env                                 0x20008a82   Data          18  diss.o(retention_mem_area0)
    diss_state                               0x20008a94   Data           1  diss_task.o(retention_mem_area0)
    custs1_env                               0x20008a96   Data          14  custs1.o(retention_mem_area0)
    custs1_state                             0x20008aa4   Data           1  custs1_task.o(retention_mem_area0)
    spotar_env                               0x20008aa6   Data           8  spotar.o(retention_mem_area0)
    spotar_state                             0x20008aae   Data           1  spotar_task.o(retention_mem_area0)
    app_env                                  0x20008ac8   Data          12  app.o(retention_mem_area0)
    app_prf_srv_perm                         0x20008ad4   Data          20  app.o(retention_mem_area0)
    app_state                                0x20008ae8   Data           1  app_task.o(retention_mem_area0)
    spota_state                              0x20008af0   Data          44  app_spotar.o(retention_mem_area0)
    mnf_data                                 0x20008b6c   Data           6  user_profile.o(retention_mem_area0)
    rwip_heap_non_ret                        0x20008bf4   Data        1036  jump_table.o(heap_mem_area_not_ret)
    SystemCoreClock                          0x20009000   Data           0  rom_symdef.txt ABSOLUTE
    error                                    0x20009004   Data           0  rom_symdef.txt ABSOLUTE
    spota_new_pd                             0x20009020   Data          80  app_spotar.o(spotar_patch_area)
    spota_all_pd                             0x20009070   Data         256  app_spotar.o(spotar_patch_area)
    __initial_sp                             0x20009800   Data           0  boot_vectors.o(STACK)
    clk_per_reg                              0x50000004   Data           4  pwm.o(.ARM.__AT_0x50000004)
    timer0_ctrl_reg                          0x50003400   Data           4  pwm.o(.ARM.__AT_0x50003400)
    triple_pwm_ctrl_reg                      0x50003410   Data           4  pwm.o(.ARM.__AT_0x50003410)



==============================================================================

Memory Map of the image

  Image Entry point : 0x20000441

  Load Region LR_IROM1 (Base: 0x20000000, Size: 0x000000a0, Max: 0x00000160, ABSOLUTE)

    Execution Region ER_IROM1 (Exec base: 0x20000000, Load base: 0x20000000, Size: 0x000000a0, Max: 0x00000160, ABSOLUTE)

    Exec Addr    Load Addr    Size         Type   Attr      Idx    E Section Name        Object

    0x20000000   0x20000000   0x000000a0   Data   RO          209    RESET               boot_vectors.o



  Load Region LR_IROM2 (Base: 0x20000160, Size: 0x00000160, Max: 0x00000160, ABSOLUTE)

    Execution Region ER_IROM2 (Exec base: 0x20000160, Load base: 0x20000160, Size: 0x00000160, Max: 0x00000160, ABSOLUTE)

    Exec Addr    Load Addr    Size         Type   Attr      Idx    E Section Name        Object

    0x20000160   0x20000160   0x00000160   Data   RO          512    jump_table_mem_area  jump_table.o



  Load Region LR_IROM3 (Base: 0x200002c0, Size: 0x00000064, Max: 0x00000080, ABSOLUTE)

    Execution Region ER_IROM3 (Exec base: 0x200002c0, Load base: 0x200002c0, Size: 0x00000064, Max: 0x00000080, ABSOLUTE)

    Exec Addr    Load Addr    Size         Type   Attr      Idx    E Section Name        Object

    0x200002c0   0x200002c0   0x00000064   Data   RO         1691    timeout_table_area  gapm.o



  Load Region LR_IROM4 (Base: 0x20000340, Size: 0x000000a4, Max: 0x00000100, ABSOLUTE)

    Execution Region ER_IROM4 (Exec base: 0x20000340, Load base: 0x20000340, Size: 0x000000a4, Max: 0x00000100, ABSOLUTE)

    Exec Addr    Load Addr    Size         Type   Attr      Idx    E Section Name        Object

    0x20000340   0x20000340   0x000000a4   Data   RO          270    nvds_data_storage_area  nvds.o



  Load Region LR_IROM5 (Base: 0x20000440, Size: 0x00007a94, Max: 0x000093c0, ABSOLUTE)

    Execution Region ER_IROM5 (Exec base: 0x20000440, Load base: 0x20000440, Size: 0x00007a94, Max: 0x00007ac0, ABSOLUTE)

    Exec Addr    Load Addr    Size         Type   Attr      Idx    E Section Name        Object

    0x20000440   0x20000440   0x00000000   Code   RO         3921  * .ARM.Collect$$$$00000000  mc_p.l(entry.o)
    0x20000440   0x20000440   0x00000004   Code   RO         3954    .ARM.Collect$$$$00000001  mc_p.l(entry2.o)
    0x20000444   0x20000444   0x00000004   Code   RO         3957    .ARM.Collect$$$$00000004  mc_p.l(entry5.o)
    0x20000448   0x20000448   0x00000000   Code   RO         3959    .ARM.Collect$$$$00000008  mc_p.l(entry7b.o)
    0x20000448   0x20000448   0x00000000   Code   RO         3961    .ARM.Collect$$$$0000000A  mc_p.l(entry8b.o)
    0x20000448   0x20000448   0x00000008   Code   RO         3962    .ARM.Collect$$$$0000000B  mc_p.l(entry9a.o)
    0x20000450   0x20000450   0x00000000   Code   RO         3964    .ARM.Collect$$$$0000000D  mc_p.l(entry10a.o)
    0x20000450   0x20000450   0x00000000   Code   RO         3966    .ARM.Collect$$$$0000000F  mc_p.l(entry11a.o)
    0x20000450   0x20000450   0x00000004   Code   RO         3955    .ARM.Collect$$$$00002712  mc_p.l(entry2.o)
    0x20000454   0x20000454   0x00000050   Code   RO            2    .text               system_armcm0.o
    0x200004a4   0x200004a4   0x0000006c   Code   RO          210    .text               boot_vectors.o
    0x20000510   0x20000510   0x00000018   Code   RO          215    .text               hardfault_handler.o
    0x20000528   0x20000528   0x00000038   Code   RO          239    .text               nmi_handler.o
    0x20000560   0x20000560   0x000000c0   Code   RO          269    .text               nvds.o
    0x20000620   0x20000620   0x00000380   Code   RO          289    .text               arch_main.o
    0x200009a0   0x200009a0   0x00000002   Code   RO          506    .text               jump_table.o
    0x200009a2   0x200009a2   0x00000002   PAD
    0x200009a4   0x200009a4   0x000000b0   Code   RO          605    .text               arch_sleep.o
    0x20000a54   0x20000a54   0x00000348   Code   RO          662    .text               arch_system.o
    0x20000d9c   0x20000d9c   0x00000240   Code   RO          798    .text               arch_patch.o
    0x20000fdc   0x20000fdc   0x00000120   Code   RO          857    .text               atts_task.obj
    0x200010fc   0x200010fc   0x000000c0   Code   RO          867    .text               atts_util.obj
    0x200011bc   0x200011bc   0x000000c4   Code   RO          872    .text               ch_map.obj
    0x20001280   0x20001280   0x00000180   Code   RO          874    .text               gapm_util.obj
    0x20001400   0x20001400   0x000000d0   Code   RO          876    .text               ke_task.obj
    0x200014d0   0x200014d0   0x0000015c   Code   RO          878    .text               smpc.obj
    0x2000162c   0x2000162c   0x00000214   Code   RO          880    .text               smpc_task.obj
    0x20001840   0x20001840   0x000004d4   Code   RO          882    .text               llc.obj
    0x20001d14   0x20001d14   0x00000160   Code   RO          893    .text               gapc_task.obj
    0x20001e74   0x20001e74   0x00000090   Code   RO          898    .text               llc_con_update_ind.obj
    0x20001f04   0x20001f04   0x0000002c   Code   RO          901    .text               syscntl.o
    0x20001f30   0x20001f30   0x00000218   Code   RO          921    .text               gpio.o
    0x20002148   0x20002148   0x00000078   Code   RO          961    .text               wkupct_quadec.o
    0x200021c0   0x200021c0   0x000000ac   Code   RO         1059    .text               battery.o
    0x2000226c   0x2000226c   0x00000118   Code   RO         1090    .text               adc.o
    0x20002384   0x20002384   0x000001e0   Code   RO         1105    .text               trng.o
    0x20002564   0x20002564   0x00000200   Code   RO         1120    .text               spi_flash.o
    0x20002764   0x20002764   0x0000016c   Code   RO         1223    .text               spi.o
    0x200028d0   0x200028d0   0x00000334   Code   RO         1259    .text               i2c_eeprom.o
    0x20002c04   0x20002c04   0x0000027c   Code   RO         1273    .text               uart2.o
    0x20002e80   0x20002e80   0x00000068   Code   RO         1338    .text               pwm.o
    0x20002ee8   0x20002ee8   0x00000300   Code   RO         1489    .text               rf_580.o
    0x200031e8   0x200031e8   0x000003ac   Code   RO         1529    .text               rwble.o
    0x20003594   0x20003594   0x000001dc   Code   RO         1661    .text               rwip.o
    0x20003770   0x20003770   0x000000ac   Code   RO         1739    .text               diss.o
    0x2000381c   0x2000381c   0x00000110   Code   RO         1777    .text               diss_task.o
    0x2000392c   0x2000392c   0x00000144   Code   RO         1799    .text               prf_utils.o
    0x20003a70   0x20003a70   0x00000054   Code   RO         1834    .text               custs1.o
    0x20003ac4   0x20003ac4   0x000006ec   Code   RO         1857    .text               custs1_task.o
    0x200041b0   0x200041b0   0x00000050   Code   RO         1887    .text               custom_common.o
    0x20004200   0x20004200   0x00000058   Code   RO         1909    .text               spotar.o
    0x20004258   0x20004258   0x00000490   Code   RO         1958    .text               spotar_task.o
    0x200046e8   0x200046e8   0x00000050   Code   RO         1982    .text               app_default_handlers.o
    0x20004738   0x20004738   0x00000514   Code   RO         2055    .text               app.o
    0x20004c4c   0x20004c4c   0x0000019c   Code   RO         2213    .text               app_task.o
    0x20004de8   0x20004de8   0x00000048   Code   RO         2295    .text               app_diss.o
    0x20004e30   0x20004e30   0x00000180   Code   RO         2313    .text               app_diss_task.o
    0x20004fb0   0x20004fb0   0x00000944   Code   RO         2330    .text               app_spotar.o
    0x200058f4   0x200058f4   0x000001b8   Code   RO         2359    .text               app_spotar_task.o
    0x20005aac   0x20005aac   0x000000b4   Code   RO         2380    .text               app_entry_point.o
    0x20005b60   0x20005b60   0x00000026   Code   RO         2411    .text               app_msg_utils.o
    0x20005b86   0x20005b86   0x00000002   PAD
    0x20005b88   0x20005b88   0x0000023c   Code   RO         2498    .text               app_easy_timer.o
    0x20005dc4   0x20005dc4   0x00000002   Code   RO         2499    .text               app_easy_timer.o
    0x20005dc6   0x20005dc6   0x00000002   Code   RO         2500    .text               app_easy_timer.o
    0x20005dc8   0x20005dc8   0x00000078   Code   RO         2657    .text               app_customs.o
    0x20005e40   0x20005e40   0x00000050   Code   RO         2677    .text               app_customs_task.o
    0x20005e90   0x20005e90   0x00000168   Code   RO         2747    .text               user_periph_setup.o
    0x20005ff8   0x20005ff8   0x000001a8   Code   RO         2765    .text               user_profile.o
    0x200061a0   0x200061a0   0x000008a8   Code   RO         2791    .text               fk_oled.o
    0x20006a48   0x20006a48   0x00000048   Code   RO         2824    .text               my_int.o
    0x20006a90   0x20006a90   0x00000284   Code   RO         2843    .text               my_timer.o
    0x20006d14   0x20006d14   0x000001ba   Code   RO         2881    .text               lis2ds12_acc_driver.o
    0x20006ece   0x20006ece   0x00000002   PAD
    0x20006ed0   0x20006ed0   0x00000020   Code   RO         3904    .text               my_adc.o
    0x20006ef0   0x20006ef0   0x00000024   Code   RO         3972    .text               mc_p.l(init.o)
    0x20006f14   0x20006f14   0x0000000c   Ven    RO         3982    Veneer$$Code        anon$$obj.o
    0x20006f20   0x20006f20   0x0000000c   Ven    RO         3983    Veneer$$Code        anon$$obj.o
    0x20006f2c   0x20006f2c   0x0000000c   Ven    RO         3984    Veneer$$Code        anon$$obj.o
    0x20006f38   0x20006f38   0x0000000c   Ven    RO         3985    Veneer$$Code        anon$$obj.o
    0x20006f44   0x20006f44   0x0000000c   Ven    RO         3986    Veneer$$Code        anon$$obj.o
    0x20006f50   0x20006f50   0x0000000c   Ven    RO         3987    Veneer$$Code        anon$$obj.o
    0x20006f5c   0x20006f5c   0x0000000c   Ven    RO         3988    Veneer$$Code        anon$$obj.o
    0x20006f68   0x20006f68   0x0000000c   Ven    RO         3989    Veneer$$Code        anon$$obj.o
    0x20006f74   0x20006f74   0x0000000c   Ven    RO         3990    Veneer$$Code        anon$$obj.o
    0x20006f80   0x20006f80   0x0000000c   Ven    RO         3991    Veneer$$Code        anon$$obj.o
    0x20006f8c   0x20006f8c   0x0000000c   Ven    RO         3992    Veneer$$Code        anon$$obj.o
    0x20006f98   0x20006f98   0x0000000c   Ven    RO         3993    Veneer$$Code        anon$$obj.o
    0x20006fa4   0x20006fa4   0x0000000c   Ven    RO         3994    Veneer$$Code        anon$$obj.o
    0x20006fb0   0x20006fb0   0x0000000c   Ven    RO         3995    Veneer$$Code        anon$$obj.o
    0x20006fbc   0x20006fbc   0x0000000c   Ven    RO         3996    Veneer$$Code        anon$$obj.o
    0x20006fc8   0x20006fc8   0x0000000c   Ven    RO         3997    Veneer$$Code        anon$$obj.o
    0x20006fd4   0x20006fd4   0x0000000c   Ven    RO         3998    Veneer$$Code        anon$$obj.o
    0x20006fe0   0x20006fe0   0x0000000c   Ven    RO         3999    Veneer$$Code        anon$$obj.o
    0x20006fec   0x20006fec   0x0000000c   Ven    RO         4000    Veneer$$Code        anon$$obj.o
    0x20006ff8   0x20006ff8   0x0000000c   Ven    RO         4001    Veneer$$Code        anon$$obj.o
    0x20007004   0x20007004   0x0000000c   Ven    RO         4002    Veneer$$Code        anon$$obj.o
    0x20007010   0x20007010   0x0000000c   Ven    RO         4003    Veneer$$Code        anon$$obj.o
    0x2000701c   0x2000701c   0x0000000c   Ven    RO         4004    Veneer$$Code        anon$$obj.o
    0x20007028   0x20007028   0x0000000c   Ven    RO         4005    Veneer$$Code        anon$$obj.o
    0x20007034   0x20007034   0x0000000c   Ven    RO         4006    Veneer$$Code        anon$$obj.o
    0x20007040   0x20007040   0x0000000c   Ven    RO         4007    Veneer$$Code        anon$$obj.o
    0x2000704c   0x2000704c   0x0000000c   Ven    RO         4008    Veneer$$Code        anon$$obj.o
    0x20007058   0x20007058   0x0000000c   Ven    RO         4009    Veneer$$Code        anon$$obj.o
    0x20007064   0x20007064   0x0000000c   Ven    RO         4010    Veneer$$Code        anon$$obj.o
    0x20007070   0x20007070   0x0000000c   Ven    RO         4011    Veneer$$Code        anon$$obj.o
    0x2000707c   0x2000707c   0x0000000c   Ven    RO         4012    Veneer$$Code        anon$$obj.o
    0x20007088   0x20007088   0x0000000c   Ven    RO         4013    Veneer$$Code        anon$$obj.o
    0x20007094   0x20007094   0x0000000c   Ven    RO         4014    Veneer$$Code        anon$$obj.o
    0x200070a0   0x200070a0   0x0000000c   Ven    RO         4015    Veneer$$Code        anon$$obj.o
    0x200070ac   0x200070ac   0x0000000c   Ven    RO         4016    Veneer$$Code        anon$$obj.o
    0x200070b8   0x200070b8   0x0000000c   Ven    RO         4017    Veneer$$Code        anon$$obj.o
    0x200070c4   0x200070c4   0x0000000c   Ven    RO         4018    Veneer$$Code        anon$$obj.o
    0x200070d0   0x200070d0   0x0000000c   Ven    RO         4019    Veneer$$Code        anon$$obj.o
    0x200070dc   0x200070dc   0x0000000c   Ven    RO         4020    Veneer$$Code        anon$$obj.o
    0x200070e8   0x200070e8   0x0000000c   Ven    RO         4021    Veneer$$Code        anon$$obj.o
    0x200070f4   0x200070f4   0x0000000c   Ven    RO         4022    Veneer$$Code        anon$$obj.o
    0x20007100   0x20007100   0x0000000c   Ven    RO         4023    Veneer$$Code        anon$$obj.o
    0x2000710c   0x2000710c   0x0000000c   Ven    RO         4024    Veneer$$Code        anon$$obj.o
    0x20007118   0x20007118   0x0000000c   Ven    RO         4025    Veneer$$Code        anon$$obj.o
    0x20007124   0x20007124   0x0000000c   Ven    RO         4026    Veneer$$Code        anon$$obj.o
    0x20007130   0x20007130   0x0000000c   Ven    RO         4027    Veneer$$Code        anon$$obj.o
    0x2000713c   0x2000713c   0x0000000c   Ven    RO         4028    Veneer$$Code        anon$$obj.o
    0x20007148   0x20007148   0x0000000c   Ven    RO         4029    Veneer$$Code        anon$$obj.o
    0x20007154   0x20007154   0x0000000c   Ven    RO         4030    Veneer$$Code        anon$$obj.o
    0x20007160   0x20007160   0x0000000c   Ven    RO         4031    Veneer$$Code        anon$$obj.o
    0x2000716c   0x2000716c   0x0000000c   Ven    RO         4032    Veneer$$Code        anon$$obj.o
    0x20007178   0x20007178   0x0000000c   Ven    RO         4033    Veneer$$Code        anon$$obj.o
    0x20007184   0x20007184   0x0000000c   Ven    RO         4034    Veneer$$Code        anon$$obj.o
    0x20007190   0x20007190   0x0000000c   Ven    RO         4035    Veneer$$Code        anon$$obj.o
    0x2000719c   0x2000719c   0x0000000c   Ven    RO         4036    Veneer$$Code        anon$$obj.o
    0x200071a8   0x200071a8   0x0000000c   Ven    RO         4037    Veneer$$Code        anon$$obj.o
    0x200071b4   0x200071b4   0x0000000c   Ven    RO         4038    Veneer$$Code        anon$$obj.o
    0x200071c0   0x200071c0   0x0000000c   Ven    RO         4039    Veneer$$Code        anon$$obj.o
    0x200071cc   0x200071cc   0x0000000c   Ven    RO         4040    Veneer$$Code        anon$$obj.o
    0x200071d8   0x200071d8   0x0000000c   Ven    RO         4041    Veneer$$Code        anon$$obj.o
    0x200071e4   0x200071e4   0x0000000c   Ven    RO         4042    Veneer$$Code        anon$$obj.o
    0x200071f0   0x200071f0   0x0000000c   Ven    RO         4043    Veneer$$Code        anon$$obj.o
    0x200071fc   0x200071fc   0x0000000c   Ven    RO         4044    Veneer$$Code        anon$$obj.o
    0x20007208   0x20007208   0x0000000c   Ven    RO         4045    Veneer$$Code        anon$$obj.o
    0x20007214   0x20007214   0x0000000c   Ven    RO         4046    Veneer$$Code        anon$$obj.o
    0x20007220   0x20007220   0x0000000c   Ven    RO         4047    Veneer$$Code        anon$$obj.o
    0x2000722c   0x2000722c   0x0000000c   Ven    RO         4048    Veneer$$Code        anon$$obj.o
    0x20007238   0x20007238   0x0000000c   Ven    RO         4049    Veneer$$Code        anon$$obj.o
    0x20007244   0x20007244   0x0000000c   Ven    RO         4050    Veneer$$Code        anon$$obj.o
    0x20007250   0x20007250   0x0000000c   Ven    RO         4051    Veneer$$Code        anon$$obj.o
    0x2000725c   0x2000725c   0x0000000c   Ven    RO         4052    Veneer$$Code        anon$$obj.o
    0x20007268   0x20007268   0x0000000c   Ven    RO         4053    Veneer$$Code        anon$$obj.o
    0x20007274   0x20007274   0x0000000c   Ven    RO         4054    Veneer$$Code        anon$$obj.o
    0x20007280   0x20007280   0x0000000c   Ven    RO         4055    Veneer$$Code        anon$$obj.o
    0x2000728c   0x2000728c   0x0000000c   Ven    RO         4056    Veneer$$Code        anon$$obj.o
    0x20007298   0x20007298   0x0000000c   Ven    RO         4057    Veneer$$Code        anon$$obj.o
    0x200072a4   0x200072a4   0x0000000c   Ven    RO         4058    Veneer$$Code        anon$$obj.o
    0x200072b0   0x200072b0   0x0000000c   Ven    RO         4059    Veneer$$Code        anon$$obj.o
    0x200072bc   0x200072bc   0x0000000c   Ven    RO         4060    Veneer$$Code        anon$$obj.o
    0x200072c8   0x200072c8   0x0000000c   Ven    RO         4061    Veneer$$Code        anon$$obj.o
    0x200072d4   0x200072d4   0x0000000c   Ven    RO         4062    Veneer$$Code        anon$$obj.o
    0x200072e0   0x200072e0   0x0000000c   Ven    RO         4063    Veneer$$Code        anon$$obj.o
    0x200072ec   0x200072ec   0x0000000c   Ven    RO         4064    Veneer$$Code        anon$$obj.o
    0x200072f8   0x200072f8   0x0000000c   Ven    RO         4065    Veneer$$Code        anon$$obj.o
    0x20007304   0x20007304   0x0000000c   Ven    RO         4066    Veneer$$Code        anon$$obj.o
    0x20007310   0x20007310   0x0000000c   Ven    RO         4067    Veneer$$Code        anon$$obj.o
    0x2000731c   0x2000731c   0x0000000c   Ven    RO         4068    Veneer$$Code        anon$$obj.o
    0x20007328   0x20007328   0x0000000c   Ven    RO         4069    Veneer$$Code        anon$$obj.o
    0x20007334   0x20007334   0x0000000c   Ven    RO         4070    Veneer$$Code        anon$$obj.o
    0x20007340   0x20007340   0x0000000c   Ven    RO         4071    Veneer$$Code        anon$$obj.o
    0x2000734c   0x2000734c   0x0000000c   Ven    RO         4072    Veneer$$Code        anon$$obj.o
    0x20007358   0x20007358   0x0000000c   Ven    RO         4073    Veneer$$Code        anon$$obj.o
    0x20007364   0x20007364   0x0000000c   Ven    RO         4074    Veneer$$Code        anon$$obj.o
    0x20007370   0x20007370   0x0000000c   Ven    RO         4075    Veneer$$Code        anon$$obj.o
    0x2000737c   0x2000737c   0x0000000c   Ven    RO         4076    Veneer$$Code        anon$$obj.o
    0x20007388   0x20007388   0x0000000c   Ven    RO         4077    Veneer$$Code        anon$$obj.o
    0x20007394   0x20007394   0x0000000c   Ven    RO         4078    Veneer$$Code        anon$$obj.o
    0x200073a0   0x200073a0   0x0000000c   Ven    RO         4079    Veneer$$Code        anon$$obj.o
    0x200073ac   0x200073ac   0x0000000c   Ven    RO         4080    Veneer$$Code        anon$$obj.o
    0x200073b8   0x200073b8   0x0000000c   Ven    RO         4081    Veneer$$Code        anon$$obj.o
    0x200073c4   0x200073c4   0x0000000c   Ven    RO         4082    Veneer$$Code        anon$$obj.o
    0x200073d0   0x200073d0   0x0000000c   Ven    RO         4083    Veneer$$Code        anon$$obj.o
    0x200073dc   0x200073dc   0x0000000c   Ven    RO         4084    Veneer$$Code        anon$$obj.o
    0x200073e8   0x200073e8   0x0000000c   Ven    RO         4085    Veneer$$Code        anon$$obj.o
    0x200073f4   0x200073f4   0x0000000c   Ven    RO         4086    Veneer$$Code        anon$$obj.o
    0x20007400   0x20007400   0x0000000c   Ven    RO         4087    Veneer$$Code        anon$$obj.o
    0x2000740c   0x2000740c   0x0000000c   Ven    RO         4088    Veneer$$Code        anon$$obj.o
    0x20007418   0x20007418   0x0000000c   Ven    RO         4089    Veneer$$Code        anon$$obj.o
    0x20007424   0x20007424   0x0000000c   Ven    RO         4090    Veneer$$Code        anon$$obj.o
    0x20007430   0x20007430   0x0000000c   Ven    RO         4091    Veneer$$Code        anon$$obj.o
    0x2000743c   0x2000743c   0x0000000c   Ven    RO         4092    Veneer$$Code        anon$$obj.o
    0x20007448   0x20007448   0x0000000c   Ven    RO         4093    Veneer$$Code        anon$$obj.o
    0x20007454   0x20007454   0x0000000c   Ven    RO         4094    Veneer$$Code        anon$$obj.o
    0x20007460   0x20007460   0x0000000c   Ven    RO         4095    Veneer$$Code        anon$$obj.o
    0x2000746c   0x2000746c   0x0000000c   Ven    RO         4096    Veneer$$Code        anon$$obj.o
    0x20007478   0x20007478   0x0000000c   Ven    RO         4097    Veneer$$Code        anon$$obj.o
    0x20007484   0x20007484   0x0000000c   Ven    RO         4098    Veneer$$Code        anon$$obj.o
    0x20007490   0x20007490   0x0000000c   Ven    RO         4099    Veneer$$Code        anon$$obj.o
    0x2000749c   0x2000749c   0x0000000c   Ven    RO         4100    Veneer$$Code        anon$$obj.o
    0x200074a8   0x200074a8   0x0000000c   Ven    RO         4101    Veneer$$Code        anon$$obj.o
    0x200074b4   0x200074b4   0x0000000c   Ven    RO         4102    Veneer$$Code        anon$$obj.o
    0x200074c0   0x200074c0   0x0000000c   Ven    RO         4103    Veneer$$Code        anon$$obj.o
    0x200074cc   0x200074cc   0x0000000c   Ven    RO         4104    Veneer$$Code        anon$$obj.o
    0x200074d8   0x200074d8   0x0000000c   Ven    RO         4105    Veneer$$Code        anon$$obj.o
    0x200074e4   0x200074e4   0x0000000c   Ven    RO         4106    Veneer$$Code        anon$$obj.o
    0x200074f0   0x200074f0   0x0000000c   Ven    RO         4107    Veneer$$Code        anon$$obj.o
    0x200074fc   0x200074fc   0x0000000c   Ven    RO         4108    Veneer$$Code        anon$$obj.o
    0x20007508   0x20007508   0x0000000c   Ven    RO         4109    Veneer$$Code        anon$$obj.o
    0x20007514   0x20007514   0x0000000c   Ven    RO         4110    Veneer$$Code        anon$$obj.o
    0x20007520   0x20007520   0x0000000c   Ven    RO         4111    Veneer$$Code        anon$$obj.o
    0x2000752c   0x2000752c   0x0000000c   Ven    RO         4112    Veneer$$Code        anon$$obj.o
    0x20007538   0x20007538   0x0000000c   Ven    RO         4113    Veneer$$Code        anon$$obj.o
    0x20007544   0x20007544   0x0000000c   Ven    RO         4114    Veneer$$Code        anon$$obj.o
    0x20007550   0x20007550   0x0000000c   Ven    RO         4115    Veneer$$Code        anon$$obj.o
    0x2000755c   0x2000755c   0x0000000c   Ven    RO         4116    Veneer$$Code        anon$$obj.o
    0x20007568   0x20007568   0x0000000c   Ven    RO         4117    Veneer$$Code        anon$$obj.o
    0x20007574   0x20007574   0x0000000c   Ven    RO         4118    Veneer$$Code        anon$$obj.o
    0x20007580   0x20007580   0x00000032   Code   RO         1674    i.__ARM_common_ll_muluu  rwip.o
    0x200075b2   0x200075b2   0x0000000e   Code   RO         3976    i.__scatterload_copy  mc_p.l(handlers.o)
    0x200075c0   0x200075c0   0x00000002   Code   RO         3977    i.__scatterload_null  mc_p.l(handlers.o)
    0x200075c2   0x200075c2   0x0000000e   Code   RO         3978    i.__scatterload_zeroinit  mc_p.l(handlers.o)
    0x200075d0   0x200075d0   0x00000054   Code   RO         3926    i.free              mc_p.l(malloc.o)
    0x20007624   0x20007624   0x0000006c   Code   RO         3927    i.malloc            mc_p.l(malloc.o)
    0x20007690   0x20007690   0x00000018   Code   RO         1377    i.set_tmr_div       pwm.o
    0x200076a8   0x200076a8   0x00000018   Code   RO         1371    i.set_tmr_enable    pwm.o
    0x200076c0   0x200076c0   0x0000000c   Code   RO         1418    i.timer0_register_callback  pwm.o
    0x200076cc   0x200076cc   0x0000000c   Code   RO         1406    i.timer0_set_pwm_high_counter  pwm.o
    0x200076d8   0x200076d8   0x0000000c   Code   RO         1412    i.timer0_set_pwm_low_counter  pwm.o
    0x200076e4   0x200076e4   0x0000000c   Code   RO         1400    i.timer0_set_pwm_on_counter  pwm.o
    0x200076f0   0x200076f0   0x00000010   Code   RO         1383    i.timer0_start      pwm.o
    0x20007700   0x20007700   0x00000010   Code   RO         1389    i.timer0_stop       pwm.o
    0x20007710   0x20007710   0x00000016   Data   RO          507    .constdata          jump_table.o
    0x20007726   0x20007726   0x00000002   PAD
    0x20007728   0x20007728   0x00000004   Data   RO          799    .constdata          arch_patch.o
    0x2000772c   0x2000772c   0x00000010   Data   RO          800    .constdata          arch_patch.o
    0x2000773c   0x2000773c   0x00000008   Data   RO          801    .constdata          arch_patch.o
    0x20007744   0x20007744   0x00000070   Data   RO          802    .constdata          arch_patch.o
    0x200077b4   0x200077b4   0x00000030   Data   RO          858    .constdata          atts_task.obj
    0x200077e4   0x200077e4   0x00000028   Data   RO          859    .constdata          atts_task.obj
    0x2000780c   0x2000780c   0x00000008   Data   RO          860    .constdata          atts_task.obj
    0x20007814   0x20007814   0x00000010   Data   RO          861    .constdata          atts_task.obj
    0x20007824   0x20007824   0x00000048   Data   RO          883    .constdata          llc.obj
    0x2000786c   0x2000786c   0x00000010   Data   RO          884    .constdata          llc.obj
    0x2000787c   0x2000787c   0x000000b0   Data   RO          885    .constdata          llc.obj
    0x2000792c   0x2000792c   0x00000008   Data   RO          886    .constdata          llc.obj
    0x20007934   0x20007934   0x00000010   Data   RO          887    .constdata          llc.obj
    0x20007944   0x20007944   0x00000018   Data   RO          894    .constdata          gapc_task.obj
    0x2000795c   0x2000795c   0x00000008   Data   RO          895    .constdata          gapc_task.obj
    0x20007964   0x20007964   0x00000010   Data   RO          896    .constdata          gapc_task.obj
    0x20007974   0x20007974   0x000000e4   Data   RO         1740    .constdata          diss.o
    0x20007a58   0x20007a58   0x00000002   Data   RO         1741    .constdata          diss.o
    0x20007a5a   0x20007a5a   0x00000005   Data   RO         1742    .constdata          diss.o
    0x20007a5f   0x20007a5f   0x00000005   Data   RO         1743    .constdata          diss.o
    0x20007a64   0x20007a64   0x00000005   Data   RO         1744    .constdata          diss.o
    0x20007a69   0x20007a69   0x00000005   Data   RO         1745    .constdata          diss.o
    0x20007a6e   0x20007a6e   0x00000005   Data   RO         1746    .constdata          diss.o
    0x20007a73   0x20007a73   0x00000005   Data   RO         1747    .constdata          diss.o
    0x20007a78   0x20007a78   0x00000005   Data   RO         1748    .constdata          diss.o
    0x20007a7d   0x20007a7d   0x00000005   Data   RO         1749    .constdata          diss.o
    0x20007a82   0x20007a82   0x00000005   Data   RO         1750    .constdata          diss.o
    0x20007a87   0x20007a87   0x00000001   PAD
    0x20007a88   0x20007a88   0x00000010   Data   RO         1751    .constdata          diss.o
    0x20007a98   0x20007a98   0x00000008   Data   RO         1778    .constdata          diss_task.o
    0x20007aa0   0x20007aa0   0x00000010   Data   RO         1779    .constdata          diss_task.o
    0x20007ab0   0x20007ab0   0x00000008   Data   RO         1780    .constdata          diss_task.o
    0x20007ab8   0x20007ab8   0x00000018   Data   RO         1781    .constdata          diss_task.o
    0x20007ad0   0x20007ad0   0x00000008   Data   RO         1782    .constdata          diss_task.o
    0x20007ad8   0x20007ad8   0x00000010   Data   RO         1835    .constdata          custs1.o
    0x20007ae8   0x20007ae8   0x00000008   Data   RO         1859    .constdata          custs1_task.o
    0x20007af0   0x20007af0   0x00000008   Data   RO         1860    .constdata          custs1_task.o
    0x20007af8   0x20007af8   0x00000028   Data   RO         1861    .constdata          custs1_task.o
    0x20007b20   0x20007b20   0x00000008   Data   RO         1862    .constdata          custs1_task.o
    0x20007b28   0x20007b28   0x00000018   Data   RO         1863    .constdata          custs1_task.o
    0x20007b40   0x20007b40   0x00000008   Data   RO         1864    .constdata          custs1_task.o
    0x20007b48   0x20007b48   0x00000002   Data   RO         1917    .constdata          spotar.o
    0x20007b4a   0x20007b4a   0x00000010   Data   RO         1918    .constdata          spotar.o
    0x20007b5a   0x20007b5a   0x00000010   Data   RO         1919    .constdata          spotar.o
    0x20007b6a   0x20007b6a   0x00000010   Data   RO         1920    .constdata          spotar.o
    0x20007b7a   0x20007b7a   0x00000010   Data   RO         1921    .constdata          spotar.o
    0x20007b8a   0x20007b8a   0x00000010   Data   RO         1922    .constdata          spotar.o
    0x20007b9a   0x20007b9a   0x00000010   Data   RO         1923    .constdata          spotar.o
    0x20007baa   0x20007baa   0x00000002   PAD
    0x20007bac   0x20007bac   0x00000010   Data   RO         1924    .constdata          spotar.o
    0x20007bbc   0x20007bbc   0x00000008   Data   RO         1959    .constdata          spotar_task.o
    0x20007bc4   0x20007bc4   0x00000008   Data   RO         1960    .constdata          spotar_task.o
    0x20007bcc   0x20007bcc   0x00000018   Data   RO         1961    .constdata          spotar_task.o
    0x20007be4   0x20007be4   0x00000008   Data   RO         1962    .constdata          spotar_task.o
    0x20007bec   0x20007bec   0x00000018   Data   RO         1963    .constdata          spotar_task.o
    0x20007c04   0x20007c04   0x00000008   Data   RO         1964    .constdata          spotar_task.o
    0x20007c0c   0x20007c0c   0x00000074   Data   RO         2075    .constdata          app.o
    0x20007c80   0x20007c80   0x0000003c   Data   RO         2215    .constdata          app_task.o
    0x20007cbc   0x20007cbc   0x00000008   Data   RO         2216    .constdata          app_task.o
    0x20007cc4   0x20007cc4   0x00000008   Data   RO         2217    .constdata          app_task.o
    0x20007ccc   0x20007ccc   0x00000010   Data   RO         2314    .constdata          app_diss_task.o
    0x20007cdc   0x20007cdc   0x00000028   Data   RO         2360    .constdata          app_spotar_task.o
    0x20007d04   0x20007d04   0x00000018   Data   RO         2381    .constdata          app_entry_point.o
    0x20007d1c   0x20007d1c   0x00000010   Data   RO         2678    .constdata          app_customs_task.o
    0x20007d2c   0x20007d2c   0x00000038   Data   RO         2718    .constdata          user_custs_config.o
    0x20007d64   0x20007d64   0x00000002   Data   RO         2730    .constdata          user_custs1_def.o
    0x20007d66   0x20007d66   0x00000005   Data   RO         2731    .constdata          user_custs1_def.o
    0x20007d6b   0x20007d6b   0x00000005   Data   RO         2732    .constdata          user_custs1_def.o
    0x20007d70   0x20007d70   0x0000000d   Data   RO         2733    .constdata          user_custs1_def.o
    0x20007d7d   0x20007d7d   0x0000000b   Data   RO         2734    .constdata          user_custs1_def.o
    0x20007d88   0x20007d88   0x0000006c   Data   RO         2735    .constdata          user_custs1_def.o
    0x20007df4   0x20007df4   0x00000030   Data   RO         3974    Region$$Table       anon$$obj.o
    0x20007e24   0x20007e24   0x00000001   Data   RW          294    .data               arch_main.o
    0x20007e25   0x20007e25   0x00000003   PAD
    0x20007e28   0x20007e28   0x00000004   Data   RW          671    .data               arch_system.o
    0x20007e2c   0x20007e2c   0x00000013   Data   RW         1925    .data               spotar.o
    0x20007e3f   0x20007e3f   0x00000013   Data   RW         1926    .data               spotar.o
    0x20007e52   0x20007e52   0x00000013   Data   RW         1927    .data               spotar.o
    0x20007e65   0x20007e65   0x00000013   Data   RW         1928    .data               spotar.o
    0x20007e78   0x20007e78   0x00000013   Data   RW         1929    .data               spotar.o
    0x20007e8b   0x20007e8b   0x00000013   Data   RW         1930    .data               spotar.o
    0x20007e9e   0x20007e9e   0x00000029   Data   RW         2796    .data               fk_oled.o
    0x20007ec7   0x20007ec7   0x00000001   Data   RW         2826    .data               my_int.o
    0x20007ec8   0x20007ec8   0x00000002   Data   RW         3906    .data               my_adc.o
    0x20007eca   0x20007eca   0x00000002   PAD
    0x20007ecc   0x20007ecc   0x00000004   Data   RW         3970    .data               mc_p.l(mvars.o)
    0x20007ed0   0x20007ed0   0x00000004   Data   RW         3971    .data               mc_p.l(mvars.o)


    Execution Region RW_IRAM50 (Exec base: 0x20008000, Load base: 0x20007ed4, Size: 0x00000b74, Max: 0x00000bf4, ABSOLUTE)

    Exec Addr    Load Addr    Size         Type   Attr      Idx    E Section Name        Object

    0x20008000        -       0x00000006   Zero   RW          291    .bss                arch_main.o
    0x20008006        -       0x00000001   Zero   RW          292    .bss                arch_main.o
    0x20008007   0x20007ed4   0x00000001   PAD
    0x20008008        -       0x00000014   Zero   RW          925    .bss                gpio.o
    0x2000801c        -       0x00000010   Zero   RW         1135    .bss                spi_flash.o
    0x2000802c        -       0x00000002   Zero   RW         1227    .bss                spi.o
    0x2000802e        -       0x00000002   Zero   RW         1260    .bss                i2c_eeprom.o
    0x20008030        -       0x0000008d   Zero   RW         1278    .bss                uart2.o
    0x200080bd   0x20007ed4   0x00000003   PAD
    0x200080c0        -       0x00000004   Zero   RW         1345    .bss                pwm.o
    0x200080c4        -       0x00000003   Zero   RW         2766    .bss                user_profile.o
    0x200080c7   0x20007ed4   0x00000001   PAD
    0x200080c8        -       0x0000080c   Zero   RW         2794    .bss                fk_oled.o
    0x200088d4        -       0x00000001   Zero   RW         2825    .bss                my_int.o
    0x200088d5   0x20007ed4   0x00000003   PAD
    0x200088d8        -       0x0000002c   Zero   RW         2844    .bss                my_timer.o
    0x20008904   0x20007ed4   0x00000004   PAD
    0x20008908        -       0x00000100   Zero   RW          208    HEAP                boot_vectors.o
    0x20008a08        -       0x00000006   Zero   RW          271    retention_mem_area0  nvds.o
    0x20008a0e        -       0x00000001   Zero   RW          296    retention_mem_area0  arch_main.o
    0x20008a0f        -       0x00000004   Zero   RW          612    retention_mem_area0  arch_sleep.o
    0x20008a13   0x20007ed4   0x00000001   PAD
    0x20008a14        -       0x00000018   Zero   RW          672    retention_mem_area0  arch_system.o
    0x20008a2c   0x20007ed4   0x00000004   PAD
    0x20008a30        -       0x00000008   Zero   RW          868    retention_mem_area0  atts_util.obj
    0x20008a38        -       0x00000018   Zero   RW          888    retention_mem_area0  llc.obj
    0x20008a50        -       0x0000000c   Zero   RW          970    retention_mem_area0  wkupct_quadec.o
    0x20008a5c        -       0x0000001c   Zero   RW         1279    retention_mem_area0  uart2.o
    0x20008a78        -       0x00000001   Zero   RW         1492    retention_mem_area0  rf_580.o
    0x20008a79   0x20007ed4   0x00000001   PAD
    0x20008a7a        -       0x00000008   Zero   RW         1532    retention_mem_area0  rwble.o
    0x20008a82        -       0x00000012   Zero   RW         1752    retention_mem_area0  diss.o
    0x20008a94        -       0x00000001   Zero   RW         1783    retention_mem_area0  diss_task.o
    0x20008a95   0x20007ed4   0x00000001   PAD
    0x20008a96        -       0x0000000e   Zero   RW         1836    retention_mem_area0  custs1.o
    0x20008aa4        -       0x00000001   Zero   RW         1865    retention_mem_area0  custs1_task.o
    0x20008aa5   0x20007ed4   0x00000001   PAD
    0x20008aa6        -       0x00000008   Zero   RW         1931    retention_mem_area0  spotar.o
    0x20008aae        -       0x00000001   Zero   RW         1965    retention_mem_area0  spotar_task.o
    0x20008aaf   0x20007ed4   0x00000001   PAD
    0x20008ab0        -       0x00000038   Zero   RW         2078    retention_mem_area0  app.o
    0x20008ae8        -       0x00000001   Zero   RW         2218    retention_mem_area0  app_task.o
    0x20008ae9   0x20007ed4   0x00000003   PAD
    0x20008aec        -       0x00000030   Zero   RW         2333    retention_mem_area0  app_spotar.o
    0x20008b1c        -       0x00000050   Zero   RW         2503    retention_mem_area0  app_easy_timer.o
    0x20008b6c        -       0x00000006   Zero   RW         2768    retention_mem_area0  user_profile.o


    Execution Region RW_IRAM51 (Exec base: 0x20008bf4, Load base: 0x20007ed4, Size: 0x0000040c, Max: 0x0000040c, ABSOLUTE, UNINIT)

    Exec Addr    Load Addr    Size         Type   Attr      Idx    E Section Name        Object

    0x20008bf4        -       0x0000040c   Zero   RW          510    heap_mem_area_not_ret  jump_table.o


    Execution Region RW_IRAM52 (Exec base: 0x20009000, Load base: 0x20007ed4, Size: 0x00000020, Max: 0x00000020, ABSOLUTE)

    Exec Addr    Load Addr    Size         Type   Attr      Idx    E Section Name        Object

    0x20009000        -       0x00000020   Zero   RW            1    RW_IRAM52.bss       anon$$obj.o


    Execution Region RW_IRAM53 (Exec base: 0x20009020, Load base: 0x20007ed4, Size: 0x00000150, Max: 0x000001e0, ABSOLUTE)

    Exec Addr    Load Addr    Size         Type   Attr      Idx    E Section Name        Object

    0x20009020        -       0x00000150   Zero   RW         2334    spotar_patch_area   app_spotar.o


    Execution Region RW_IRAM54 (Exec base: 0x20009200, Load base: 0x20007ed4, Size: 0x00000600, Max: 0x00000600, ABSOLUTE, UNINIT)

    Exec Addr    Load Addr    Size         Type   Attr      Idx    E Section Name        Object

    0x20009200        -       0x00000600   Zero   RW          207    STACK               boot_vectors.o



  Load Region LR_RETENTION_RAM2 (Base: 0x00080768, Size: 0x00000000, Max: 0x00002898, ABSOLUTE)

    Execution Region ZI_RET20 (Exec base: 0x00080768, Load base: 0x00080768, Size: 0x00000a8c, Max: 0x000022b8, ABSOLUTE, UNINIT)

    Exec Addr    Load Addr    Size         Type   Attr      Idx    E Section Name        Object

    0x00080768        -       0x0000040c   Zero   RW          508    heap_db_area        jump_table.o
    0x00080b74        -       0x00000154   Zero   RW          509    heap_env_area       jump_table.o
    0x00080cc8        -       0x0000052c   Zero   RW          511    heap_msg_area       jump_table.o


    Execution Region ZI_RET21 (Exec base: 0x00082a20, Load base: 0x00080768, Size: 0x000005e0, Max: 0x000005e0, ABSOLUTE)

    Exec Addr    Load Addr    Size         Type   Attr      Idx    E Section Name        Object

    0x00082a20        -       0x000005de   Zero   RW          295    BLE_exchange_memory  arch_main.o



  Load Region LR$$.ARM.__AT_0x50000004 (Base: 0x50000004, Size: 0x00000000, Max: 0x00000004, ABSOLUTE)

    Execution Region ER$$.ARM.__AT_0x50000004 (Exec base: 0x50000004, Load base: 0x50000004, Size: 0x00000004, Max: 0x00000004, ABSOLUTE, UNINIT)

    Exec Addr    Load Addr    Size         Type   Attr      Idx    E Section Name        Object

    0x50000004        -       0x00000004   Zero   RW         1342    .ARM.__AT_0x50000004  pwm.o



  Load Region LR$$.ARM.__AT_0x50003400 (Base: 0x50003400, Size: 0x00000000, Max: 0x00000004, ABSOLUTE)

    Execution Region ER$$.ARM.__AT_0x50003400 (Exec base: 0x50003400, Load base: 0x50003400, Size: 0x00000004, Max: 0x00000004, ABSOLUTE, UNINIT)

    Exec Addr    Load Addr    Size         Type   Attr      Idx    E Section Name        Object

    0x50003400        -       0x00000004   Zero   RW         1343    .ARM.__AT_0x50003400  pwm.o



  Load Region LR$$.ARM.__AT_0x50003410 (Base: 0x50003410, Size: 0x00000000, Max: 0x00000004, ABSOLUTE)

    Execution Region ER$$.ARM.__AT_0x50003410 (Exec base: 0x50003410, Load base: 0x50003410, Size: 0x00000004, Max: 0x00000004, ABSOLUTE, UNINIT)

    Exec Addr    Load Addr    Size         Type   Attr      Idx    E Section Name        Object

    0x50003410        -       0x00000004   Zero   RW         1344    .ARM.__AT_0x50003410  pwm.o


==============================================================================

Image component sizes


      Code (inc. data)   RO Data    RW Data    ZI Data      Debug   Object Name

       280         18          0          0          0       1951   adc.o
      1300         78        116          0         56      20066   app.o
       120         10          0          0          0       1841   app_customs.o
        80          6         16          0          0       2589   app_customs_task.o
        80          4          0          0          0       2794   app_default_handlers.o
        72          4          0          0          0       1646   app_diss.o
       384         58         16          0          0       3091   app_diss_task.o
       576         54          0          0         80       7013   app_easy_timer.o
       180         14         24          0          0       6282   app_entry_point.o
        38          0          0          0          0        675   app_msg_utils.o
      2372         72          0          0        384      14686   app_spotar.o
       440         18         40          0          0       3873   app_spotar_task.o
       412         16         76          0          1      11876   app_task.o
       896         92          0          1       1510      41560   arch_main.o
       576         66        140          0          0      23606   arch_patch.o
       176         16          0          0          4       3415   arch_sleep.o
       840         70          0          4         24     103753   arch_system.o
       288         32        112          0          0        144   atts_task.obj
       192          8          0          0          8        108   atts_util.obj
       172         18          0          0          0       2146   battery.o
       108         22        160          0       1792        788   boot_vectors.o
       196         12          0          0          0        108   ch_map.obj
        80         10          0          0          0        981   custom_common.o
        84         14         16          0         14       4569   custs1.o
      1772         68         96          0          1       9184   custs1_task.o
       172         14        291          0         18       6209   diss.o
       272         26         64          0          1       4552   diss_task.o
      2216         84          0         41       2060       6759   fk_oled.o
       352         24         48          0          0        212   gapc_task.obj
         0          0        100          0          0       1280   gapm.o
       384         38          0          0          0        112   gapm_util.obj
       536         32          0          0         20      12401   gpio.o
        24         10          0          0          0       2837   hardfault_handler.o
       820         24          0          0          2       6917   i2c_eeprom.o
         2          0        374          0       3736      15939   jump_table.o
       208         16          0          0          0         96   ke_task.obj
       442          0          0          0          0       4914   lis2ds12_acc_driver.o
      1236         42        288          0         24        520   llc.obj
       144         10          0          0          0         76   llc_con_update_ind.obj
        32          6          0          2          0        874   my_adc.o
        72         14          0          1          1       1037   my_int.o
       644         36          0          0         44      26696   my_timer.o
        56          6          0          0          0       6483   nmi_handler.o
       192         30        164          0          6       2424   nvds.o
       324         14          0          0          0       3229   prf_utils.o
       232         62          0          0         16       8106   pwm.o
       768        222          0          0          1      65871   rf_580.o
       940         80          0          0          8     117408   rwble.o
       526         42          0          0          0      65428   rwip.o
       348         24          0          0          0        160   smpc.obj
       532          4          0          0          0         84   smpc_task.obj
       364          8          0          0          2       4172   spi.o
       512          8          0          0         16       7993   spi_flash.o
        88         14        114        114          8       7437   spotar.o
      1168         98         80          0          1       6970   spotar_task.o
        44          0          0          0          0        713   syscntl.o
        80         18          0          0          0     201087   system_armcm0.o
       480         38          0          0          0       3445   trng.o
       636         54          0          0        169      18618   uart2.o
         0          0        144          0          0       1188   user_custs1_def.o
         0          0         56          0          0        849   user_custs_config.o
       360          6          0          0          0        896   user_periph_setup.o
       424         46          0          0          9       5556   user_profile.o
       120         14          0          0         12      12434   wkupct_quadec.o

    ----------------------------------------------------------------------
     29114       2492       2588        168      10088     900727   Object Totals
      1644        548         48          0         32          0   (incl. Generated)
         6          0          5          5         28          0   (incl. Padding)

    ----------------------------------------------------------------------

      Code (inc. data)   RO Data    RW Data    ZI Data      Debug   Library Member Name

         0          0          0          0          0          0   entry.o
         0          0          0          0          0          0   entry10a.o
         0          0          0          0          0          0   entry11a.o
         8          4          0          0          0          0   entry2.o
         4          0          0          0          0          0   entry5.o
         0          0          0          0          0          0   entry7b.o
         0          0          0          0          0          0   entry8b.o
         8          4          0          0          0          0   entry9a.o
        30          0          0          0          0          0   handlers.o
        36          8          0          0          0         68   init.o
       192         20          0          0          0        144   malloc.o
         0          0          0          8          0          0   mvars.o

    ----------------------------------------------------------------------
       278         36          0          8          0        212   Library Totals
         0          0          0          0          0          0   (incl. Padding)

    ----------------------------------------------------------------------

      Code (inc. data)   RO Data    RW Data    ZI Data      Debug   Library Name

       278         36          0          8          0        212   mc_p.l

    ----------------------------------------------------------------------
       278         36          0          8          0        212   Library Totals

    ----------------------------------------------------------------------

==============================================================================


      Code (inc. data)   RO Data    RW Data    ZI Data      Debug   

     29392       2528       2588        176      10088     897043   Grand Totals
     29392       2528       2588        176      10088     897043   ELF Image Totals
     29392       2528       2588        176          0          0   ROM Totals

==============================================================================

    Total RO  Size (Code + RO Data)                31980 (  31.23kB)
    Total RW  Size (RW Data + ZI Data)             10264 (  10.02kB)
    Total ROM Size (Code + RO Data + RW Data)      32156 (  31.40kB)

==============================================================================

